---
triple:          'arm64-apple-darwin'
binary-path:     '/Users/precious/Intelligent-Computing-Systems.git/VGG/output/mlp_test'
relocations:
  - { offsetInCU: 0x9D9F, offset: 0x9D9F, size: 0x8, addend: 0x0, symName: __ZNSt3__13maxB7v160002IdEERKT_S3_S3_, symObjAddr: 0xE88, symBinAddr: 0x100005388, symSize: 0x2C }
  - { offsetInCU: 0x9DE2, offset: 0x9DE2, size: 0x8, addend: 0x0, symName: __ZNSt3__119__debug_db_insert_cB7v160002INS_6vectorIP5LayerNS_9allocatorIS3_EEEEEEvPT_, symObjAddr: 0x27D4, symBinAddr: 0x100006CD4, symSize: 0x10 }
  - { offsetInCU: 0x9E13, offset: 0x9E13, size: 0x8, addend: 0x0, symName: __ZNSt3__112__to_addressB7v160002IP5LayerEEPT_S4_, symObjAddr: 0x2B1C, symBinAddr: 0x10000701C, symSize: 0x14 }
  - { offsetInCU: 0x9E48, offset: 0x9E48, size: 0x8, addend: 0x0, symName: __ZNSt3__13maxB7v160002ImEERKT_S3_S3_, symObjAddr: 0x2F54, symBinAddr: 0x100007454, symSize: 0x2C }
  - { offsetInCU: 0x9E8B, offset: 0x9E8B, size: 0x8, addend: 0x0, symName: __ZNSt3__13minB7v160002ImEERKT_S3_S3_, symObjAddr: 0x2F80, symBinAddr: 0x100007480, symSize: 0x2C }
  - { offsetInCU: 0xA0CF, offset: 0xA0CF, size: 0x8, addend: 0x0, symName: __ZNSt3__13minB7v160002ImNS_6__lessImmEEEERKT_S5_S5_T0_, symObjAddr: 0x300C, symBinAddr: 0x10000750C, symSize: 0x54 }
  - { offsetInCU: 0xA164, offset: 0xA164, size: 0x8, addend: 0x0, symName: __ZNSt3__120__throw_length_errorB7v160002EPKc, symObjAddr: 0x30E8, symBinAddr: 0x1000075E8, symSize: 0x64 }
  - { offsetInCU: 0xA18C, offset: 0xA18C, size: 0x8, addend: 0x0, symName: __ZNSt3__13maxB7v160002ImNS_6__lessImmEEEERKT_S5_S5_T0_, symObjAddr: 0x322C, symBinAddr: 0x10000772C, symSize: 0x54 }
  - { offsetInCU: 0xA1E6, offset: 0xA1E6, size: 0x8, addend: 0x0, symName: __ZNSt3__119__allocate_at_leastB7v160002INS_9allocatorIP5LayerEEEENS_19__allocation_resultINS_16allocator_traitsIT_E7pointerEEERS7_m, symObjAddr: 0x3390, symBinAddr: 0x100007890, symSize: 0x40 }
  - { offsetInCU: 0xA229, offset: 0xA229, size: 0x8, addend: 0x0, symName: __ZNSt3__130__libcpp_is_constant_evaluatedB7v160002Ev, symObjAddr: 0x3540, symBinAddr: 0x100007A40, symSize: 0xC }
  - { offsetInCU: 0xA246, offset: 0xA246, size: 0x8, addend: 0x0, symName: __ZNSt3__117__libcpp_allocateB7v160002Emm, symObjAddr: 0x354C, symBinAddr: 0x100007A4C, symSize: 0x28 }
  - { offsetInCU: 0xA283, offset: 0xA283, size: 0x8, addend: 0x0, symName: __ZNSt3__121__libcpp_operator_newB7v160002IJmEEEPvDpT_, symObjAddr: 0x3574, symBinAddr: 0x100007A74, symSize: 0x24 }
  - { offsetInCU: 0xA2BC, offset: 0xA2BC, size: 0x8, addend: 0x0, symName: __ZNSt3__142__uninitialized_allocator_move_if_noexceptB7v160002INS_9allocatorIP5LayerEENS_16reverse_iteratorIPS3_EES7_S3_vEET1_RT_T0_SB_S8_, symObjAddr: 0x36B4, symBinAddr: 0x100007BB4, symSize: 0xE8 }
  - { offsetInCU: 0xA339, offset: 0xA339, size: 0x8, addend: 0x0, symName: __ZNSt3__14swapB7v160002IPP5LayerEEvRT_S5_, symObjAddr: 0x37E8, symBinAddr: 0x100007CE8, symSize: 0x3C }
  - { offsetInCU: 0xA38A, offset: 0xA38A, size: 0x8, addend: 0x0, symName: __ZNSt3__125__debug_db_invalidate_allB7v160002INS_6vectorIP5LayerNS_9allocatorIS3_EEEEEEvPT_, symObjAddr: 0x38D0, symBinAddr: 0x100007DD0, symSize: 0x10 }
  - { offsetInCU: 0xA3BB, offset: 0xA3BB, size: 0x8, addend: 0x0, symName: __ZNSt3__1neB7v160002IPP5LayerS3_EEbRKNS_16reverse_iteratorIT_EERKNS4_IT0_EE, symObjAddr: 0x3928, symBinAddr: 0x100007E28, symSize: 0x48 }
  - { offsetInCU: 0xA42C, offset: 0xA42C, size: 0x8, addend: 0x0, symName: __ZNSt3__114__construct_atB7v160002IP5LayerJS2_EPS2_EEPT_S5_DpOT0_, symObjAddr: 0x3970, symBinAddr: 0x100007E70, symSize: 0x2C }
  - { offsetInCU: 0xA49C, offset: 0xA49C, size: 0x8, addend: 0x0, symName: __ZNSt3__112__to_addressB7v160002INS_16reverse_iteratorIPP5LayerEEvEENS_5decayIDTclsr19__to_address_helperIT_EE6__callclsr3stdE7declvalIRKS7_EEEEE4typeES9_, symObjAddr: 0x399C, symBinAddr: 0x100007E9C, symSize: 0x24 }
  - { offsetInCU: 0xA4D2, offset: 0xA4D2, size: 0x8, addend: 0x0, symName: __ZNSt3__14moveB7v160002INS_16reverse_iteratorIPP5LayerEES5_EET0_T_S7_S6_, symObjAddr: 0x3A08, symBinAddr: 0x100007F08, symSize: 0x78 }
  - { offsetInCU: 0xA555, offset: 0xA555, size: 0x8, addend: 0x0, symName: __ZNSt3__16__moveB7v160002INS_17_ClassicAlgPolicyENS_16reverse_iteratorIPP5LayerEES6_S6_EENS_4pairIT0_T2_EES8_T1_S9_, symObjAddr: 0x3AF0, symBinAddr: 0x100007FF0, symSize: 0x64 }
  - { offsetInCU: 0xA5C1, offset: 0xA5C1, size: 0x8, addend: 0x0, symName: __ZNSt3__123__dispatch_copy_or_moveB7v160002INS_17_ClassicAlgPolicyENS_11__move_loopIS1_EENS_14__move_trivialENS_16reverse_iteratorIPP5LayerEES9_S9_EENS_4pairIT2_T4_EESB_T3_SC_, symObjAddr: 0x3B54, symBinAddr: 0x100008054, symSize: 0x7C }
  - { offsetInCU: 0xA63F, offset: 0xA63F, size: 0x8, addend: 0x0, symName: __ZNSt3__121__unwrap_and_dispatchB7v160002INS_10__overloadINS_11__move_loopINS_17_ClassicAlgPolicyEEENS_14__move_trivialEEENS_16reverse_iteratorIPP5LayerEESB_SB_Li0EEENS_4pairIT0_T2_EESD_T1_SE_, symObjAddr: 0x3BD0, symBinAddr: 0x1000080D0, symSize: 0x12C }
  - { offsetInCU: 0xA6CF, offset: 0xA6CF, size: 0x8, addend: 0x0, symName: __ZNSt3__114__unwrap_rangeB7v160002INS_16reverse_iteratorIPP5LayerEES5_EENS_4pairIT0_S7_EET_S9_, symObjAddr: 0x3CFC, symBinAddr: 0x1000081FC, symSize: 0x84 }
  - { offsetInCU: 0xA823, offset: 0xA823, size: 0x8, addend: 0x0, symName: __ZNSt3__113__unwrap_iterB7v160002INS_16reverse_iteratorIPP5LayerEENS_18__unwrap_iter_implIS5_Lb0EEELi0EEEDTclsrT0_8__unwrapclsr3stdE7declvalIT_EEEES9_, symObjAddr: 0x3E20, symBinAddr: 0x100008320, symSize: 0x44 }
  - { offsetInCU: 0xA867, offset: 0xA867, size: 0x8, addend: 0x0, symName: __ZNSt3__19make_pairB7v160002INS_16reverse_iteratorIPP5LayerEES5_EENS_4pairINS_18__unwrap_ref_decayIT_E4typeENS7_IT0_E4typeEEEOS8_OSB_, symObjAddr: 0x3E64, symBinAddr: 0x100008364, symSize: 0x38 }
  - { offsetInCU: 0xA8B6, offset: 0xA8B6, size: 0x8, addend: 0x0, symName: __ZNSt3__114__rewrap_rangeB7v160002INS_16reverse_iteratorIPP5LayerEES5_EET_S6_T0_, symObjAddr: 0x3E9C, symBinAddr: 0x10000839C, symSize: 0x5C }
  - { offsetInCU: 0xA902, offset: 0xA902, size: 0x8, addend: 0x0, symName: __ZNSt3__113__rewrap_iterB7v160002INS_16reverse_iteratorIPP5LayerEES5_NS_18__unwrap_iter_implIS5_Lb0EEEEET_S8_T0_, symObjAddr: 0x3EF8, symBinAddr: 0x1000083F8, symSize: 0x88 }
  - { offsetInCU: 0xAA09, offset: 0xAA09, size: 0x8, addend: 0x0, symName: __ZNSt3__119__libcpp_deallocateB7v160002EPvmm, symObjAddr: 0x4320, symBinAddr: 0x100008820, symSize: 0x30 }
  - { offsetInCU: 0xAA51, offset: 0xAA51, size: 0x8, addend: 0x0, symName: __ZNSt3__127__do_deallocate_handle_sizeB7v160002IJEEEvPvmDpT_, symObjAddr: 0x4350, symBinAddr: 0x100008850, symSize: 0x28 }
  - { offsetInCU: 0xAA8F, offset: 0xAA8F, size: 0x8, addend: 0x0, symName: __ZNSt3__124__libcpp_operator_deleteB7v160002IJPvEEEvDpT_, symObjAddr: 0x4378, symBinAddr: 0x100008878, symSize: 0x24 }
  - { offsetInCU: 0xAAC4, offset: 0xAAC4, size: 0x8, addend: 0x0, symName: __ZNSt3__122__make_exception_guardB7v160002INS_6vectorINS1_INS1_INS1_IdNS_9allocatorIdEEEENS2_IS4_EEEENS2_IS6_EEEENS2_IS8_EEE16__destroy_vectorEEENS_28__exception_guard_exceptionsIT_EESD_, symObjAddr: 0x46D4, symBinAddr: 0x100008BD4, symSize: 0x40 }
  - { offsetInCU: 0xAAF9, offset: 0xAAF9, size: 0x8, addend: 0x0, symName: __ZNSt3__119__debug_db_insert_cB7v160002INS_6vectorINS1_INS1_INS1_IdNS_9allocatorIdEEEENS2_IS4_EEEENS2_IS6_EEEENS2_IS8_EEEEEEvPT_, symObjAddr: 0x4748, symBinAddr: 0x100008C48, symSize: 0x10 }
  - { offsetInCU: 0xAB2A, offset: 0xAB2A, size: 0x8, addend: 0x0, symName: __ZNSt3__119__allocate_at_leastB7v160002INS_9allocatorINS_6vectorINS2_INS2_IdNS1_IdEEEENS1_IS4_EEEENS1_IS6_EEEEEEEENS_19__allocation_resultINS_16allocator_traitsIT_E7pointerEEERSC_m, symObjAddr: 0x4AA0, symBinAddr: 0x100008FA0, symSize: 0x40 }
  - { offsetInCU: 0xAB6D, offset: 0xAB6D, size: 0x8, addend: 0x0, symName: __ZNSt3__112__to_addressB7v160002INS_6vectorINS1_INS1_IdNS_9allocatorIdEEEENS2_IS4_EEEENS2_IS6_EEEEEEPT_SA_, symObjAddr: 0x4DB8, symBinAddr: 0x1000092B8, symSize: 0x14 }
  - { offsetInCU: 0xABA2, offset: 0xABA2, size: 0x8, addend: 0x0, symName: __ZNSt3__130__uninitialized_allocator_copyB7v160002INS_9allocatorINS_6vectorINS2_INS2_IdNS1_IdEEEENS1_IS4_EEEENS1_IS6_EEEEEEPS8_SA_SA_EET2_RT_T0_T1_SB_, symObjAddr: 0x4E68, symBinAddr: 0x100009368, symSize: 0xFC }
  - { offsetInCU: 0xAC40, offset: 0xAC40, size: 0x8, addend: 0x0, symName: __ZNSt3__122__make_exception_guardB7v160002INS_29_AllocatorDestroyRangeReverseINS_9allocatorINS_6vectorINS3_INS3_IdNS2_IdEEEENS2_IS5_EEEENS2_IS7_EEEEEEPS9_EEEENS_28__exception_guard_exceptionsIT_EESE_, symObjAddr: 0x4FDC, symBinAddr: 0x1000094DC, symSize: 0x4C }
  - { offsetInCU: 0xAC76, offset: 0xAC76, size: 0x8, addend: 0x0, symName: __ZNSt3__122__make_exception_guardB7v160002INS_6vectorINS1_INS1_IdNS_9allocatorIdEEEENS2_IS4_EEEENS2_IS6_EEE16__destroy_vectorEEENS_28__exception_guard_exceptionsIT_EESB_, symObjAddr: 0x5378, symBinAddr: 0x100009878, symSize: 0x40 }
  - { offsetInCU: 0xACAB, offset: 0xACAB, size: 0x8, addend: 0x0, symName: __ZNSt3__119__debug_db_insert_cB7v160002INS_6vectorINS1_INS1_IdNS_9allocatorIdEEEENS2_IS4_EEEENS2_IS6_EEEEEEvPT_, symObjAddr: 0x53EC, symBinAddr: 0x1000098EC, symSize: 0x10 }
  - { offsetInCU: 0xACDC, offset: 0xACDC, size: 0x8, addend: 0x0, symName: __ZNSt3__119__allocate_at_leastB7v160002INS_9allocatorINS_6vectorINS2_IdNS1_IdEEEENS1_IS4_EEEEEEEENS_19__allocation_resultINS_16allocator_traitsIT_E7pointerEEERSA_m, symObjAddr: 0x5744, symBinAddr: 0x100009C44, symSize: 0x40 }
  - { offsetInCU: 0xAD1F, offset: 0xAD1F, size: 0x8, addend: 0x0, symName: __ZNSt3__112__to_addressB7v160002INS_6vectorINS1_IdNS_9allocatorIdEEEENS2_IS4_EEEEEEPT_S8_, symObjAddr: 0x5A5C, symBinAddr: 0x100009F5C, symSize: 0x14 }
  - { offsetInCU: 0xAD54, offset: 0xAD54, size: 0x8, addend: 0x0, symName: __ZNSt3__130__uninitialized_allocator_copyB7v160002INS_9allocatorINS_6vectorINS2_IdNS1_IdEEEENS1_IS4_EEEEEEPS6_S8_S8_EET2_RT_T0_T1_S9_, symObjAddr: 0x5B0C, symBinAddr: 0x10000A00C, symSize: 0xFC }
  - { offsetInCU: 0xADF2, offset: 0xADF2, size: 0x8, addend: 0x0, symName: __ZNSt3__122__make_exception_guardB7v160002INS_29_AllocatorDestroyRangeReverseINS_9allocatorINS_6vectorINS3_IdNS2_IdEEEENS2_IS5_EEEEEEPS7_EEEENS_28__exception_guard_exceptionsIT_EESC_, symObjAddr: 0x5C80, symBinAddr: 0x10000A180, symSize: 0x4C }
  - { offsetInCU: 0xAE28, offset: 0xAE28, size: 0x8, addend: 0x0, symName: __ZNSt3__122__make_exception_guardB7v160002INS_6vectorINS1_IdNS_9allocatorIdEEEENS2_IS4_EEE16__destroy_vectorEEENS_28__exception_guard_exceptionsIT_EES9_, symObjAddr: 0x601C, symBinAddr: 0x10000A51C, symSize: 0x40 }
  - { offsetInCU: 0xAE5D, offset: 0xAE5D, size: 0x8, addend: 0x0, symName: __ZNSt3__119__debug_db_insert_cB7v160002INS_6vectorINS1_IdNS_9allocatorIdEEEENS2_IS4_EEEEEEvPT_, symObjAddr: 0x6090, symBinAddr: 0x10000A590, symSize: 0x10 }
  - { offsetInCU: 0xAE8E, offset: 0xAE8E, size: 0x8, addend: 0x0, symName: __ZNSt3__119__allocate_at_leastB7v160002INS_9allocatorINS_6vectorIdNS1_IdEEEEEEEENS_19__allocation_resultINS_16allocator_traitsIT_E7pointerEEERS8_m, symObjAddr: 0x63E8, symBinAddr: 0x10000A8E8, symSize: 0x40 }
  - { offsetInCU: 0xAED1, offset: 0xAED1, size: 0x8, addend: 0x0, symName: __ZNSt3__112__to_addressB7v160002INS_6vectorIdNS_9allocatorIdEEEEEEPT_S6_, symObjAddr: 0x6700, symBinAddr: 0x10000AC00, symSize: 0x14 }
  - { offsetInCU: 0xAF06, offset: 0xAF06, size: 0x8, addend: 0x0, symName: __ZNSt3__130__uninitialized_allocator_copyB7v160002INS_9allocatorINS_6vectorIdNS1_IdEEEEEEPS4_S6_S6_EET2_RT_T0_T1_S7_, symObjAddr: 0x67B0, symBinAddr: 0x10000ACB0, symSize: 0xFC }
  - { offsetInCU: 0xAFA4, offset: 0xAFA4, size: 0x8, addend: 0x0, symName: __ZNSt3__122__make_exception_guardB7v160002INS_29_AllocatorDestroyRangeReverseINS_9allocatorINS_6vectorIdNS2_IdEEEEEEPS5_EEEENS_28__exception_guard_exceptionsIT_EESA_, symObjAddr: 0x6924, symBinAddr: 0x10000AE24, symSize: 0x4C }
  - { offsetInCU: 0xAFDA, offset: 0xAFDA, size: 0x8, addend: 0x0, symName: __ZNSt3__122__make_exception_guardB7v160002INS_6vectorIdNS_9allocatorIdEEE16__destroy_vectorEEENS_28__exception_guard_exceptionsIT_EES7_, symObjAddr: 0x6CC0, symBinAddr: 0x10000B1C0, symSize: 0x40 }
  - { offsetInCU: 0xB00F, offset: 0xB00F, size: 0x8, addend: 0x0, symName: __ZNSt3__119__debug_db_insert_cB7v160002INS_6vectorIdNS_9allocatorIdEEEEEEvPT_, symObjAddr: 0x6D34, symBinAddr: 0x10000B234, symSize: 0x10 }
  - { offsetInCU: 0xB040, offset: 0xB040, size: 0x8, addend: 0x0, symName: __ZNSt3__119__allocate_at_leastB7v160002INS_9allocatorIdEEEENS_19__allocation_resultINS_16allocator_traitsIT_E7pointerEEERS5_m, symObjAddr: 0x7084, symBinAddr: 0x10000B584, symSize: 0x40 }
  - { offsetInCU: 0xB083, offset: 0xB083, size: 0x8, addend: 0x0, symName: __ZNSt3__112__to_addressB7v160002IdEEPT_S2_, symObjAddr: 0x7374, symBinAddr: 0x10000B874, symSize: 0x14 }
  - { offsetInCU: 0xB0B8, offset: 0xB0B8, size: 0x8, addend: 0x0, symName: __ZNSt3__130__uninitialized_allocator_copyB7v160002INS_9allocatorIdEEPdS3_S3_EET2_RT_T0_T1_S4_, symObjAddr: 0x7424, symBinAddr: 0x10000B924, symSize: 0xFC }
  - { offsetInCU: 0xB156, offset: 0xB156, size: 0x8, addend: 0x0, symName: __ZNSt3__122__make_exception_guardB7v160002INS_29_AllocatorDestroyRangeReverseINS_9allocatorIdEEPdEEEENS_28__exception_guard_exceptionsIT_EES7_, symObjAddr: 0x7590, symBinAddr: 0x10000BA90, symSize: 0x4C }
  - { offsetInCU: 0xB18C, offset: 0xB18C, size: 0x8, addend: 0x0, symName: __ZNSt3__119__allocator_destroyB7v160002INS_9allocatorIdEENS_16reverse_iteratorIPdEES5_EEvRT_T0_T1_, symObjAddr: 0x7810, symBinAddr: 0x10000BD10, symSize: 0x70 }
  - { offsetInCU: 0xB1EF, offset: 0xB1EF, size: 0x8, addend: 0x0, symName: __ZNSt3__1neB7v160002IPdS1_EEbRKNS_16reverse_iteratorIT_EERKNS2_IT0_EE, symObjAddr: 0x78B4, symBinAddr: 0x10000BDB4, symSize: 0x48 }
  - { offsetInCU: 0xB23B, offset: 0xB23B, size: 0x8, addend: 0x0, symName: __ZNSt3__112__to_addressB7v160002INS_16reverse_iteratorIPdEEvEENS_5decayIDTclsr19__to_address_helperIT_EE6__callclsr3stdE7declvalIRKS5_EEEEE4typeES7_, symObjAddr: 0x7928, symBinAddr: 0x10000BE28, symSize: 0x24 }
  - { offsetInCU: 0xB29A, offset: 0xB29A, size: 0x8, addend: 0x0, symName: __ZNSt3__118__debug_db_erase_cB7v160002INS_6vectorIdNS_9allocatorIdEEEEEEvPT_, symObjAddr: 0x7C14, symBinAddr: 0x10000C114, symSize: 0x10 }
  - { offsetInCU: 0xB2CB, offset: 0xB2CB, size: 0x8, addend: 0x0, symName: __ZNSt3__119__allocator_destroyB7v160002INS_9allocatorINS_6vectorIdNS1_IdEEEEEENS_16reverse_iteratorIPS4_EES8_EEvRT_T0_T1_, symObjAddr: 0x7E40, symBinAddr: 0x10000C340, symSize: 0x70 }
  - { offsetInCU: 0xB32E, offset: 0xB32E, size: 0x8, addend: 0x0, symName: __ZNSt3__1neB7v160002IPNS_6vectorIdNS_9allocatorIdEEEES5_EEbRKNS_16reverse_iteratorIT_EERKNS6_IT0_EE, symObjAddr: 0x7EE4, symBinAddr: 0x10000C3E4, symSize: 0x48 }
  - { offsetInCU: 0xB37A, offset: 0xB37A, size: 0x8, addend: 0x0, symName: __ZNSt3__112__to_addressB7v160002INS_16reverse_iteratorIPNS_6vectorIdNS_9allocatorIdEEEEEEvEENS_5decayIDTclsr19__to_address_helperIT_EE6__callclsr3stdE7declvalIRKS9_EEEEE4typeESB_, symObjAddr: 0x7F58, symBinAddr: 0x10000C458, symSize: 0x24 }
  - { offsetInCU: 0xB3D9, offset: 0xB3D9, size: 0x8, addend: 0x0, symName: __ZNSt3__118__debug_db_erase_cB7v160002INS_6vectorINS1_IdNS_9allocatorIdEEEENS2_IS4_EEEEEEvPT_, symObjAddr: 0x8274, symBinAddr: 0x10000C774, symSize: 0x10 }
  - { offsetInCU: 0xB40A, offset: 0xB40A, size: 0x8, addend: 0x0, symName: __ZNSt3__119__allocator_destroyB7v160002INS_9allocatorINS_6vectorINS2_IdNS1_IdEEEENS1_IS4_EEEEEENS_16reverse_iteratorIPS6_EESA_EEvRT_T0_T1_, symObjAddr: 0x84A4, symBinAddr: 0x10000C9A4, symSize: 0x70 }
  - { offsetInCU: 0xB46D, offset: 0xB46D, size: 0x8, addend: 0x0, symName: __ZNSt3__1neB7v160002IPNS_6vectorINS1_IdNS_9allocatorIdEEEENS2_IS4_EEEES7_EEbRKNS_16reverse_iteratorIT_EERKNS8_IT0_EE, symObjAddr: 0x8548, symBinAddr: 0x10000CA48, symSize: 0x48 }
  - { offsetInCU: 0xB4B9, offset: 0xB4B9, size: 0x8, addend: 0x0, symName: __ZNSt3__112__to_addressB7v160002INS_16reverse_iteratorIPNS_6vectorINS2_IdNS_9allocatorIdEEEENS3_IS5_EEEEEEvEENS_5decayIDTclsr19__to_address_helperIT_EE6__callclsr3stdE7declvalIRKSB_EEEEE4typeESD_, symObjAddr: 0x85BC, symBinAddr: 0x10000CABC, symSize: 0x24 }
  - { offsetInCU: 0xB518, offset: 0xB518, size: 0x8, addend: 0x0, symName: __ZNSt3__118__debug_db_erase_cB7v160002INS_6vectorINS1_INS1_IdNS_9allocatorIdEEEENS2_IS4_EEEENS2_IS6_EEEEEEvPT_, symObjAddr: 0x88D8, symBinAddr: 0x10000CDD8, symSize: 0x10 }
  - { offsetInCU: 0xB549, offset: 0xB549, size: 0x8, addend: 0x0, symName: __ZNSt3__119__allocator_destroyB7v160002INS_9allocatorINS_6vectorINS2_INS2_IdNS1_IdEEEENS1_IS4_EEEENS1_IS6_EEEEEENS_16reverse_iteratorIPS8_EESC_EEvRT_T0_T1_, symObjAddr: 0x8B08, symBinAddr: 0x10000D008, symSize: 0x70 }
  - { offsetInCU: 0xB5AC, offset: 0xB5AC, size: 0x8, addend: 0x0, symName: __ZNSt3__1neB7v160002IPNS_6vectorINS1_INS1_IdNS_9allocatorIdEEEENS2_IS4_EEEENS2_IS6_EEEES9_EEbRKNS_16reverse_iteratorIT_EERKNSA_IT0_EE, symObjAddr: 0x8BAC, symBinAddr: 0x10000D0AC, symSize: 0x48 }
  - { offsetInCU: 0xB5F8, offset: 0xB5F8, size: 0x8, addend: 0x0, symName: __ZNSt3__112__to_addressB7v160002INS_16reverse_iteratorIPNS_6vectorINS2_INS2_IdNS_9allocatorIdEEEENS3_IS5_EEEENS3_IS7_EEEEEEvEENS_5decayIDTclsr19__to_address_helperIT_EE6__callclsr3stdE7declvalIRKSD_EEEEE4typeESF_, symObjAddr: 0x8C20, symBinAddr: 0x10000D120, symSize: 0x24 }
  - { offsetInCU: 0xB657, offset: 0xB657, size: 0x8, addend: 0x0, symName: __ZNSt3__118__debug_db_erase_cB7v160002INS_6vectorINS1_INS1_INS1_IdNS_9allocatorIdEEEENS2_IS4_EEEENS2_IS6_EEEENS2_IS8_EEEEEEvPT_, symObjAddr: 0x8F3C, symBinAddr: 0x10000D43C, symSize: 0x10 }
  - { offsetInCU: 0xB688, offset: 0xB688, size: 0x8, addend: 0x0, symName: __ZNSt3__118__debug_db_erase_cB7v160002INS_6vectorIP5LayerNS_9allocatorIS3_EEEEEEvPT_, symObjAddr: 0x9290, symBinAddr: 0x10000D790, symSize: 0x10 }
  - { offsetInCU: 0xB6B9, offset: 0xB6B9, size: 0x8, addend: 0x0, symName: __ZNSt3__1neB7v160002IPP5LayerEEbRKNS_11__wrap_iterIT_EES8_, symObjAddr: 0x9398, symBinAddr: 0x10000D898, symSize: 0x34 }
  - { offsetInCU: 0xB6FC, offset: 0xB6FC, size: 0x8, addend: 0x0, symName: __ZNSt3__1eqB7v160002IPP5LayerEEbRKNS_11__wrap_iterIT_EES8_, symObjAddr: 0x94C8, symBinAddr: 0x10000D9C8, symSize: 0x48 }
  - { offsetInCU: 0xB73F, offset: 0xB73F, size: 0x8, addend: 0x0, symName: __ZNSt3__115__debug_db_swapB7v160002INS_6vectorINS1_INS1_IdNS_9allocatorIdEEEENS2_IS4_EEEENS2_IS6_EEEEEEvPT_SA_, symObjAddr: 0xA08C, symBinAddr: 0x10000E58C, symSize: 0x14 }
  - { offsetInCU: 0xB77E, offset: 0xB77E, size: 0x8, addend: 0x0, symName: __ZNSt3__125__debug_db_invalidate_allB7v160002INS_6vectorINS1_INS1_IdNS_9allocatorIdEEEENS2_IS4_EEEENS2_IS6_EEEEEEvPT_, symObjAddr: 0xA1D8, symBinAddr: 0x10000E6D8, symSize: 0x10 }
  - { offsetInCU: 0xB7AF, offset: 0xB7AF, size: 0x8, addend: 0x0, symName: __ZNSt3__13maxB7v160002IdNS_6__lessIddEEEERKT_S5_S5_T0_, symObjAddr: 0xA22C, symBinAddr: 0x10000E72C, symSize: 0x54 }
  - { offsetInCU: 0xBACE, offset: 0xBACE, size: 0x8, addend: 0x0, symName: __ZSt28__throw_bad_array_new_lengthB7v160002v, symObjAddr: 0x350C, symBinAddr: 0x100007A0C, symSize: 0x34 }
  - { offsetInCU: 0xC198, offset: 0xC198, size: 0x8, addend: 0x0, symName: __ZNSt3__16vectorIP5LayerNS_9allocatorIS2_EEE26__swap_out_circular_bufferERNS_14__split_bufferIS2_RS4_EE, symObjAddr: 0x2D40, symBinAddr: 0x100007240, symSize: 0x118 }
  - { offsetInCU: 0xE541, offset: 0xE541, size: 0x8, addend: 0x0, symName: __Z8padInputRKNSt3__16vectorINS0_INS0_IdNS_9allocatorIdEEEENS1_IS3_EEEENS1_IS5_EEEEi, symObjAddr: 0x0, symBinAddr: 0x100004500, symSize: 0x294 }
  - { offsetInCU: 0xE5F1, offset: 0xE5F1, size: 0x8, addend: 0x0, symName: __ZNKSt3__16vectorINS0_INS0_IdNS_9allocatorIdEEEENS1_IS3_EEEENS1_IS5_EEE4sizeB7v160002Ev, symObjAddr: 0x294, symBinAddr: 0x100004794, symSize: 0x28 }
  - { offsetInCU: 0xE615, offset: 0xE615, size: 0x8, addend: 0x0, symName: __ZNKSt3__16vectorINS0_INS0_IdNS_9allocatorIdEEEENS1_IS3_EEEENS1_IS5_EEEixB7v160002Em, symObjAddr: 0x2BC, symBinAddr: 0x1000047BC, symSize: 0x2C }
  - { offsetInCU: 0xE64A, offset: 0xE64A, size: 0x8, addend: 0x0, symName: __ZNKSt3__16vectorINS0_IdNS_9allocatorIdEEEENS1_IS3_EEE4sizeB7v160002Ev, symObjAddr: 0x2E8, symBinAddr: 0x1000047E8, symSize: 0x28 }
  - { offsetInCU: 0xE66E, offset: 0xE66E, size: 0x8, addend: 0x0, symName: __ZNKSt3__16vectorINS0_IdNS_9allocatorIdEEEENS1_IS3_EEEixB7v160002Em, symObjAddr: 0x310, symBinAddr: 0x100004810, symSize: 0x2C }
  - { offsetInCU: 0xE6A3, offset: 0xE6A3, size: 0x8, addend: 0x0, symName: __ZNKSt3__16vectorIdNS_9allocatorIdEEE4sizeB7v160002Ev, symObjAddr: 0x33C, symBinAddr: 0x10000483C, symSize: 0x28 }
  - { offsetInCU: 0xE6C7, offset: 0xE6C7, size: 0x8, addend: 0x0, symName: __ZNSt3__16vectorIdNS_9allocatorIdEEEC1EmRKd, symObjAddr: 0x364, symBinAddr: 0x100004864, symSize: 0x3C }
  - { offsetInCU: 0xE70F, offset: 0xE70F, size: 0x8, addend: 0x0, symName: __ZNSt3__16vectorINS0_IdNS_9allocatorIdEEEENS1_IS3_EEEC1EmRKS3_, symObjAddr: 0x3A0, symBinAddr: 0x1000048A0, symSize: 0x3C }
  - { offsetInCU: 0xE757, offset: 0xE757, size: 0x8, addend: 0x0, symName: __ZNSt3__16vectorINS0_INS0_IdNS_9allocatorIdEEEENS1_IS3_EEEENS1_IS5_EEEC1EmRKS5_, symObjAddr: 0x3DC, symBinAddr: 0x1000048DC, symSize: 0x3C }
  - { offsetInCU: 0xE79F, offset: 0xE79F, size: 0x8, addend: 0x0, symName: __ZNSt3__16vectorINS0_IdNS_9allocatorIdEEEENS1_IS3_EEED1B7v160002Ev, symObjAddr: 0x418, symBinAddr: 0x100004918, symSize: 0x2C }
  - { offsetInCU: 0xE7C7, offset: 0xE7C7, size: 0x8, addend: 0x0, symName: __ZNSt3__16vectorIdNS_9allocatorIdEEED1B7v160002Ev, symObjAddr: 0x450, symBinAddr: 0x100004950, symSize: 0x2C }
  - { offsetInCU: 0xE7EF, offset: 0xE7EF, size: 0x8, addend: 0x0, symName: __ZNKSt3__16vectorIdNS_9allocatorIdEEEixB7v160002Em, symObjAddr: 0x47C, symBinAddr: 0x10000497C, symSize: 0x24 }
  - { offsetInCU: 0xE824, offset: 0xE824, size: 0x8, addend: 0x0, symName: __ZNSt3__16vectorINS0_INS0_IdNS_9allocatorIdEEEENS1_IS3_EEEENS1_IS5_EEEixB7v160002Em, symObjAddr: 0x4A0, symBinAddr: 0x1000049A0, symSize: 0x2C }
  - { offsetInCU: 0xE859, offset: 0xE859, size: 0x8, addend: 0x0, symName: __ZNSt3__16vectorINS0_IdNS_9allocatorIdEEEENS1_IS3_EEEixB7v160002Em, symObjAddr: 0x4CC, symBinAddr: 0x1000049CC, symSize: 0x2C }
  - { offsetInCU: 0xE88E, offset: 0xE88E, size: 0x8, addend: 0x0, symName: __ZNSt3__16vectorIdNS_9allocatorIdEEEixB7v160002Em, symObjAddr: 0x4F8, symBinAddr: 0x1000049F8, symSize: 0x24 }
  - { offsetInCU: 0xE8C3, offset: 0xE8C3, size: 0x8, addend: 0x0, symName: __ZNSt3__16vectorINS0_INS0_IdNS_9allocatorIdEEEENS1_IS3_EEEENS1_IS5_EEED1B7v160002Ev, symObjAddr: 0x51C, symBinAddr: 0x100004A1C, symSize: 0x2C }
  - { offsetInCU: 0xE8EB, offset: 0xE8EB, size: 0x8, addend: 0x0, symName: __Z16applyConvolutionNSt3__16vectorINS0_INS0_IdNS_9allocatorIdEEEENS1_IS3_EEEENS1_IS5_EEEERKNS0_IS7_NS1_IS7_EEEEii, symObjAddr: 0x548, symBinAddr: 0x100004A48, symSize: 0x4E8 }
  - { offsetInCU: 0xEA80, offset: 0xEA80, size: 0x8, addend: 0x0, symName: __ZNSt3__16vectorINS0_INS0_IdNS_9allocatorIdEEEENS1_IS3_EEEENS1_IS5_EEEaSB7v160002EOS7_, symObjAddr: 0xA30, symBinAddr: 0x100004F30, symSize: 0x34 }
  - { offsetInCU: 0xEAB5, offset: 0xEAB5, size: 0x8, addend: 0x0, symName: __ZNKSt3__16vectorINS0_INS0_INS0_IdNS_9allocatorIdEEEENS1_IS3_EEEENS1_IS5_EEEENS1_IS7_EEE4sizeB7v160002Ev, symObjAddr: 0xA64, symBinAddr: 0x100004F64, symSize: 0x28 }
  - { offsetInCU: 0xEAD9, offset: 0xEAD9, size: 0x8, addend: 0x0, symName: __ZNKSt3__16vectorINS0_INS0_INS0_IdNS_9allocatorIdEEEENS1_IS3_EEEENS1_IS5_EEEENS1_IS7_EEEixB7v160002Em, symObjAddr: 0xA8C, symBinAddr: 0x100004F8C, symSize: 0x2C }
  - { offsetInCU: 0xEB0E, offset: 0xEB0E, size: 0x8, addend: 0x0, symName: __Z10maxPoolingRKNSt3__16vectorINS0_INS0_IdNS_9allocatorIdEEEENS1_IS3_EEEENS1_IS5_EEEEiii, symObjAddr: 0xAB8, symBinAddr: 0x100004FB8, symSize: 0x3BC }
  - { offsetInCU: 0xEC46, offset: 0xEC46, size: 0x8, addend: 0x0, symName: __ZNSt3__114numeric_limitsIdE3maxB7v160002Ev, symObjAddr: 0xE74, symBinAddr: 0x100005374, symSize: 0x14 }
  - { offsetInCU: 0xEC59, offset: 0xEC59, size: 0x8, addend: 0x0, symName: __Z13createFiltersii, symObjAddr: 0xEB4, symBinAddr: 0x1000053B4, symSize: 0x290 }
  - { offsetInCU: 0xECF6, offset: 0xECF6, size: 0x8, addend: 0x0, symName: __ZNSt3__16vectorIdNS_9allocatorIdEEEC1Em, symObjAddr: 0x1144, symBinAddr: 0x100005644, symSize: 0x34 }
  - { offsetInCU: 0xED2F, offset: 0xED2F, size: 0x8, addend: 0x0, symName: __ZNSt3__16vectorINS0_INS0_INS0_IdNS_9allocatorIdEEEENS1_IS3_EEEENS1_IS5_EEEENS1_IS7_EEEC1EmRKS7_, symObjAddr: 0x1178, symBinAddr: 0x100005678, symSize: 0x3C }
  - { offsetInCU: 0xED77, offset: 0xED77, size: 0x8, addend: 0x0, symName: __ZNSt3__16vectorINS0_INS0_INS0_IdNS_9allocatorIdEEEENS1_IS3_EEEENS1_IS5_EEEENS1_IS7_EEEixB7v160002Em, symObjAddr: 0x11B4, symBinAddr: 0x1000056B4, symSize: 0x2C }
  - { offsetInCU: 0xEDAC, offset: 0xEDAC, size: 0x8, addend: 0x0, symName: __ZNSt3__16vectorINS0_INS0_INS0_IdNS_9allocatorIdEEEENS1_IS3_EEEENS1_IS5_EEEENS1_IS7_EEED1B7v160002Ev, symObjAddr: 0x11E0, symBinAddr: 0x1000056E0, symSize: 0x2C }
  - { offsetInCU: 0xEDD4, offset: 0xEDD4, size: 0x8, addend: 0x0, symName: _main, symObjAddr: 0x120C, symBinAddr: 0x10000570C, symSize: 0x140 }
  - { offsetInCU: 0xEE87, offset: 0xEE87, size: 0x8, addend: 0x0, symName: __ZN5VGG19C1Ev, symObjAddr: 0x134C, symBinAddr: 0x10000584C, symSize: 0x2C }
  - { offsetInCU: 0xEEB0, offset: 0xEEB0, size: 0x8, addend: 0x0, symName: __ZN5VGG197forwardERNSt3__16vectorINS1_INS1_IdNS0_9allocatorIdEEEENS2_IS4_EEEENS2_IS6_EEEE, symObjAddr: 0x1378, symBinAddr: 0x100005878, symSize: 0xDC }
  - { offsetInCU: 0xEEF6, offset: 0xEEF6, size: 0x8, addend: 0x0, symName: __ZN5VGG19D1Ev, symObjAddr: 0x1454, symBinAddr: 0x100005954, symSize: 0x2C }
  - { offsetInCU: 0xEF1F, offset: 0xEF1F, size: 0x8, addend: 0x0, symName: __ZN5VGG19C2Ev, symObjAddr: 0x1480, symBinAddr: 0x100005980, symSize: 0xEEC }
  - { offsetInCU: 0xEF47, offset: 0xEF47, size: 0x8, addend: 0x0, symName: __ZNSt3__16vectorIP5LayerNS_9allocatorIS2_EEEC1B7v160002Ev, symObjAddr: 0x236C, symBinAddr: 0x10000686C, symSize: 0x2C }
  - { offsetInCU: 0xEF6F, offset: 0xEF6F, size: 0x8, addend: 0x0, symName: __ZNSt3__16vectorIP5LayerNS_9allocatorIS2_EEE9push_backB7v160002EOS2_, symObjAddr: 0x2398, symBinAddr: 0x100006898, symSize: 0x6C }
  - { offsetInCU: 0xEFA5, offset: 0xEFA5, size: 0x8, addend: 0x0, symName: __ZN5VGG1913createFiltersEii, symObjAddr: 0x2404, symBinAddr: 0x100006904, symSize: 0x294 }
  - { offsetInCU: 0xF0C4, offset: 0xF0C4, size: 0x8, addend: 0x0, symName: __ZN9ConvLayerC1ENSt3__16vectorINS1_INS1_INS1_IdNS0_9allocatorIdEEEENS2_IS4_EEEENS2_IS6_EEEENS2_IS8_EEEEii, symObjAddr: 0x2698, symBinAddr: 0x100006B98, symSize: 0x44 }
  - { offsetInCU: 0xF195, offset: 0xF195, size: 0x8, addend: 0x0, symName: __ZN12MaxPoolLayerC1Eiii, symObjAddr: 0x26DC, symBinAddr: 0x100006BDC, symSize: 0x44 }
  - { offsetInCU: 0xF1E7, offset: 0xF1E7, size: 0x8, addend: 0x0, symName: __ZNSt3__16vectorIP5LayerNS_9allocatorIS2_EEED1B7v160002Ev, symObjAddr: 0x2720, symBinAddr: 0x100006C20, symSize: 0x2C }
  - { offsetInCU: 0xF20F, offset: 0xF20F, size: 0x8, addend: 0x0, symName: __ZNSt3__16vectorIP5LayerNS_9allocatorIS2_EEEC2B7v160002Ev, symObjAddr: 0x274C, symBinAddr: 0x100006C4C, symSize: 0x4C }
  - { offsetInCU: 0xF241, offset: 0xF241, size: 0x8, addend: 0x0, symName: __ZNSt3__117__compressed_pairIPP5LayerNS_9allocatorIS2_EEEC1B7v160002IDnNS_18__default_init_tagEEEOT_OT0_, symObjAddr: 0x2798, symBinAddr: 0x100006C98, symSize: 0x3C }
  - { offsetInCU: 0xF297, offset: 0xF297, size: 0x8, addend: 0x0, symName: __ZNSt3__117__compressed_pairIPP5LayerNS_9allocatorIS2_EEEC2B7v160002IDnNS_18__default_init_tagEEEOT_OT0_, symObjAddr: 0x27E4, symBinAddr: 0x100006CE4, symSize: 0x40 }
  - { offsetInCU: 0xF2EE, offset: 0xF2EE, size: 0x8, addend: 0x0, symName: __ZNSt3__122__compressed_pair_elemIPP5LayerLi0ELb0EEC2B7v160002IDnvEEOT_, symObjAddr: 0x2824, symBinAddr: 0x100006D24, symSize: 0x1C }
  - { offsetInCU: 0xF32E, offset: 0xF32E, size: 0x8, addend: 0x0, symName: __ZNSt3__122__compressed_pair_elemINS_9allocatorIP5LayerEELi1ELb1EEC2B7v160002ENS_18__default_init_tagE, symObjAddr: 0x2840, symBinAddr: 0x100006D40, symSize: 0x2C }
  - { offsetInCU: 0xF361, offset: 0xF361, size: 0x8, addend: 0x0, symName: __ZNSt3__19allocatorIP5LayerEC2B7v160002Ev, symObjAddr: 0x286C, symBinAddr: 0x100006D6C, symSize: 0x2C }
  - { offsetInCU: 0xF38A, offset: 0xF38A, size: 0x8, addend: 0x0, symName: __ZNSt3__116__non_trivial_ifILb1ENS_9allocatorIP5LayerEEEC2B7v160002Ev, symObjAddr: 0x2898, symBinAddr: 0x100006D98, symSize: 0x14 }
  - { offsetInCU: 0xF3B3, offset: 0xF3B3, size: 0x8, addend: 0x0, symName: __ZNSt3__16vectorIP5LayerNS_9allocatorIS2_EEE9__end_capB7v160002Ev, symObjAddr: 0x28AC, symBinAddr: 0x100006DAC, symSize: 0x28 }
  - { offsetInCU: 0xF3DC, offset: 0xF3DC, size: 0x8, addend: 0x0, symName: __ZNSt3__16vectorIP5LayerNS_9allocatorIS2_EEE22__construct_one_at_endB7v160002IJS2_EEEvDpOT_, symObjAddr: 0x28D4, symBinAddr: 0x100006DD4, symSize: 0x98 }
  - { offsetInCU: 0xF428, offset: 0xF428, size: 0x8, addend: 0x0, symName: __ZNSt3__16vectorIP5LayerNS_9allocatorIS2_EEE21__push_back_slow_pathIS2_EEvOT_, symObjAddr: 0x296C, symBinAddr: 0x100006E6C, symSize: 0xE0 }
  - { offsetInCU: 0xF485, offset: 0xF485, size: 0x8, addend: 0x0, symName: __ZNSt3__117__compressed_pairIPP5LayerNS_9allocatorIS2_EEE5firstB7v160002Ev, symObjAddr: 0x2A4C, symBinAddr: 0x100006F4C, symSize: 0x24 }
  - { offsetInCU: 0xF4A8, offset: 0xF4A8, size: 0x8, addend: 0x0, symName: __ZNSt3__122__compressed_pair_elemIPP5LayerLi0ELb0EE5__getB7v160002Ev, symObjAddr: 0x2A70, symBinAddr: 0x100006F70, symSize: 0x14 }
  - { offsetInCU: 0xF4E5, offset: 0xF4E5, size: 0x8, addend: 0x0, symName: __ZNSt3__16vectorIP5LayerNS_9allocatorIS2_EEE21_ConstructTransactionC1B7v160002ERS5_m, symObjAddr: 0x2A84, symBinAddr: 0x100006F84, symSize: 0x3C }
  - { offsetInCU: 0xF52C, offset: 0xF52C, size: 0x8, addend: 0x0, symName: __ZNSt3__116allocator_traitsINS_9allocatorIP5LayerEEE9constructB7v160002IS3_JS3_EvEEvRS4_PT_DpOT0_, symObjAddr: 0x2AC0, symBinAddr: 0x100006FC0, symSize: 0x34 }
  - { offsetInCU: 0xF583, offset: 0xF583, size: 0x8, addend: 0x0, symName: __ZNSt3__16vectorIP5LayerNS_9allocatorIS2_EEE7__allocB7v160002Ev, symObjAddr: 0x2AF4, symBinAddr: 0x100006FF4, symSize: 0x28 }
  - { offsetInCU: 0xF5A6, offset: 0xF5A6, size: 0x8, addend: 0x0, symName: __ZNSt3__16vectorIP5LayerNS_9allocatorIS2_EEE21_ConstructTransactionD1B7v160002Ev, symObjAddr: 0x2B30, symBinAddr: 0x100007030, symSize: 0x2C }
  - { offsetInCU: 0xF5CF, offset: 0xF5CF, size: 0x8, addend: 0x0, symName: __ZNSt3__16vectorIP5LayerNS_9allocatorIS2_EEE21_ConstructTransactionC2B7v160002ERS5_m, symObjAddr: 0x2B5C, symBinAddr: 0x10000705C, symSize: 0x44 }
  - { offsetInCU: 0xF615, offset: 0xF615, size: 0x8, addend: 0x0, symName: __ZNSt3__19allocatorIP5LayerE9constructB7v160002IS2_JS2_EEEvPT_DpOT0_, symObjAddr: 0x2BA0, symBinAddr: 0x1000070A0, symSize: 0x28 }
  - { offsetInCU: 0xF66A, offset: 0xF66A, size: 0x8, addend: 0x0, symName: __ZNSt3__117__compressed_pairIPP5LayerNS_9allocatorIS2_EEE6secondB7v160002Ev, symObjAddr: 0x2BC8, symBinAddr: 0x1000070C8, symSize: 0x24 }
  - { offsetInCU: 0xF68D, offset: 0xF68D, size: 0x8, addend: 0x0, symName: __ZNSt3__122__compressed_pair_elemINS_9allocatorIP5LayerEELi1ELb1EE5__getB7v160002Ev, symObjAddr: 0x2BEC, symBinAddr: 0x1000070EC, symSize: 0x14 }
  - { offsetInCU: 0xF6B2, offset: 0xF6B2, size: 0x8, addend: 0x0, symName: __ZNSt3__16vectorIP5LayerNS_9allocatorIS2_EEE21_ConstructTransactionD2B7v160002Ev, symObjAddr: 0x2C00, symBinAddr: 0x100007100, symSize: 0x20 }
  - { offsetInCU: 0xF6DA, offset: 0xF6DA, size: 0x8, addend: 0x0, symName: __ZNKSt3__16vectorIP5LayerNS_9allocatorIS2_EEE11__recommendB7v160002Em, symObjAddr: 0x2C20, symBinAddr: 0x100007120, symSize: 0xB4 }
  - { offsetInCU: 0xF72D, offset: 0xF72D, size: 0x8, addend: 0x0, symName: __ZNKSt3__16vectorIP5LayerNS_9allocatorIS2_EEE4sizeB7v160002Ev, symObjAddr: 0x2CD4, symBinAddr: 0x1000071D4, symSize: 0x28 }
  - { offsetInCU: 0xF751, offset: 0xF751, size: 0x8, addend: 0x0, symName: __ZNSt3__114__split_bufferIP5LayerRNS_9allocatorIS2_EEEC1EmmS5_, symObjAddr: 0x2CFC, symBinAddr: 0x1000071FC, symSize: 0x44 }
  - { offsetInCU: 0xF7A5, offset: 0xF7A5, size: 0x8, addend: 0x0, symName: __ZNSt3__114__split_bufferIP5LayerRNS_9allocatorIS2_EEED1Ev, symObjAddr: 0x2E58, symBinAddr: 0x100007358, symSize: 0x2C }
  - { offsetInCU: 0xF7CF, offset: 0xF7CF, size: 0x8, addend: 0x0, symName: __ZNKSt3__16vectorIP5LayerNS_9allocatorIS2_EEE8max_sizeEv, symObjAddr: 0x2E84, symBinAddr: 0x100007384, symSize: 0x74 }
  - { offsetInCU: 0xF7F6, offset: 0xF7F6, size: 0x8, addend: 0x0, symName: __ZNKSt3__16vectorIP5LayerNS_9allocatorIS2_EEE20__throw_length_errorB7v160002Ev, symObjAddr: 0x2EF8, symBinAddr: 0x1000073F8, symSize: 0x1C }
  - { offsetInCU: 0xF81A, offset: 0xF81A, size: 0x8, addend: 0x0, symName: __ZNKSt3__16vectorIP5LayerNS_9allocatorIS2_EEE8capacityB7v160002Ev, symObjAddr: 0x2F14, symBinAddr: 0x100007414, symSize: 0x40 }
  - { offsetInCU: 0xF848, offset: 0xF848, size: 0x8, addend: 0x0, symName: __ZNSt3__116allocator_traitsINS_9allocatorIP5LayerEEE8max_sizeB7v160002IS4_vEEmRKS4_, symObjAddr: 0x2FAC, symBinAddr: 0x1000074AC, symSize: 0x24 }
  - { offsetInCU: 0xF876, offset: 0xF876, size: 0x8, addend: 0x0, symName: __ZNKSt3__16vectorIP5LayerNS_9allocatorIS2_EEE7__allocB7v160002Ev, symObjAddr: 0x2FD0, symBinAddr: 0x1000074D0, symSize: 0x28 }
  - { offsetInCU: 0xF899, offset: 0xF899, size: 0x8, addend: 0x0, symName: __ZNSt3__114numeric_limitsIlE3maxB7v160002Ev, symObjAddr: 0x2FF8, symBinAddr: 0x1000074F8, symSize: 0x14 }
  - { offsetInCU: 0xF8C0, offset: 0xF8C0, size: 0x8, addend: 0x0, symName: __ZNKSt3__16__lessImmEclB7v160002ERKmS3_, symObjAddr: 0x3060, symBinAddr: 0x100007560, symSize: 0x34 }
  - { offsetInCU: 0xF900, offset: 0xF900, size: 0x8, addend: 0x0, symName: __ZNKSt3__19allocatorIP5LayerE8max_sizeB7v160002Ev, symObjAddr: 0x3094, symBinAddr: 0x100007594, symSize: 0x14 }
  - { offsetInCU: 0xF925, offset: 0xF925, size: 0x8, addend: 0x0, symName: __ZNKSt3__117__compressed_pairIPP5LayerNS_9allocatorIS2_EEE6secondB7v160002Ev, symObjAddr: 0x30A8, symBinAddr: 0x1000075A8, symSize: 0x24 }
  - { offsetInCU: 0xF948, offset: 0xF948, size: 0x8, addend: 0x0, symName: __ZNKSt3__122__compressed_pair_elemINS_9allocatorIP5LayerEELi1ELb1EE5__getB7v160002Ev, symObjAddr: 0x30CC, symBinAddr: 0x1000075CC, symSize: 0x14 }
  - { offsetInCU: 0xF96D, offset: 0xF96D, size: 0x8, addend: 0x0, symName: __ZNSt3__123__libcpp_numeric_limitsIlLb1EE3maxB7v160002Ev, symObjAddr: 0x30E0, symBinAddr: 0x1000075E0, symSize: 0x8 }
  - { offsetInCU: 0xF980, offset: 0xF980, size: 0x8, addend: 0x0, symName: __ZNSt12length_errorC1B7v160002EPKc, symObjAddr: 0x314C, symBinAddr: 0x10000764C, symSize: 0x34 }
  - { offsetInCU: 0xF9B6, offset: 0xF9B6, size: 0x8, addend: 0x0, symName: __ZNSt12length_errorC2B7v160002EPKc, symObjAddr: 0x3180, symBinAddr: 0x100007680, symSize: 0x4C }
  - { offsetInCU: 0xF9ED, offset: 0xF9ED, size: 0x8, addend: 0x0, symName: __ZNKSt3__16vectorIP5LayerNS_9allocatorIS2_EEE9__end_capB7v160002Ev, symObjAddr: 0x31CC, symBinAddr: 0x1000076CC, symSize: 0x28 }
  - { offsetInCU: 0xFA11, offset: 0xFA11, size: 0x8, addend: 0x0, symName: __ZNKSt3__117__compressed_pairIPP5LayerNS_9allocatorIS2_EEE5firstB7v160002Ev, symObjAddr: 0x31F4, symBinAddr: 0x1000076F4, symSize: 0x24 }
  - { offsetInCU: 0xFA34, offset: 0xFA34, size: 0x8, addend: 0x0, symName: __ZNKSt3__122__compressed_pair_elemIPP5LayerLi0ELb0EE5__getB7v160002Ev, symObjAddr: 0x3218, symBinAddr: 0x100007718, symSize: 0x14 }
  - { offsetInCU: 0xFA58, offset: 0xFA58, size: 0x8, addend: 0x0, symName: __ZNSt3__114__split_bufferIP5LayerRNS_9allocatorIS2_EEEC2EmmS5_, symObjAddr: 0x3280, symBinAddr: 0x100007780, symSize: 0xD4 }
  - { offsetInCU: 0xFACA, offset: 0xFACA, size: 0x8, addend: 0x0, symName: __ZNSt3__117__compressed_pairIPP5LayerRNS_9allocatorIS2_EEEC1B7v160002IDnS6_EEOT_OT0_, symObjAddr: 0x3354, symBinAddr: 0x100007854, symSize: 0x3C }
  - { offsetInCU: 0xFB21, offset: 0xFB21, size: 0x8, addend: 0x0, symName: __ZNSt3__114__split_bufferIP5LayerRNS_9allocatorIS2_EEE7__allocB7v160002Ev, symObjAddr: 0x33D0, symBinAddr: 0x1000078D0, symSize: 0x28 }
  - { offsetInCU: 0xFB45, offset: 0xFB45, size: 0x8, addend: 0x0, symName: __ZNSt3__114__split_bufferIP5LayerRNS_9allocatorIS2_EEE9__end_capB7v160002Ev, symObjAddr: 0x33F8, symBinAddr: 0x1000078F8, symSize: 0x28 }
  - { offsetInCU: 0xFB68, offset: 0xFB68, size: 0x8, addend: 0x0, symName: __ZNSt3__117__compressed_pairIPP5LayerRNS_9allocatorIS2_EEEC2B7v160002IDnS6_EEOT_OT0_, symObjAddr: 0x3420, symBinAddr: 0x100007920, symSize: 0x48 }
  - { offsetInCU: 0xFBBF, offset: 0xFBBF, size: 0x8, addend: 0x0, symName: __ZNSt3__122__compressed_pair_elemIRNS_9allocatorIP5LayerEELi1ELb0EEC2B7v160002IS5_vEEOT_, symObjAddr: 0x3468, symBinAddr: 0x100007968, symSize: 0x20 }
  - { offsetInCU: 0xFC00, offset: 0xFC00, size: 0x8, addend: 0x0, symName: __ZNSt3__19allocatorIP5LayerE8allocateB7v160002Em, symObjAddr: 0x3488, symBinAddr: 0x100007988, symSize: 0x84 }
  - { offsetInCU: 0xFC32, offset: 0xFC32, size: 0x8, addend: 0x0, symName: __ZNSt3__117__compressed_pairIPP5LayerRNS_9allocatorIS2_EEE6secondB7v160002Ev, symObjAddr: 0x3598, symBinAddr: 0x100007A98, symSize: 0x28 }
  - { offsetInCU: 0xFC55, offset: 0xFC55, size: 0x8, addend: 0x0, symName: __ZNSt3__122__compressed_pair_elemIRNS_9allocatorIP5LayerEELi1ELb0EE5__getB7v160002Ev, symObjAddr: 0x35C0, symBinAddr: 0x100007AC0, symSize: 0x18 }
  - { offsetInCU: 0xFC7A, offset: 0xFC7A, size: 0x8, addend: 0x0, symName: __ZNSt3__117__compressed_pairIPP5LayerRNS_9allocatorIS2_EEE5firstB7v160002Ev, symObjAddr: 0x35D8, symBinAddr: 0x100007AD8, symSize: 0x24 }
  - { offsetInCU: 0xFC9E, offset: 0xFC9E, size: 0x8, addend: 0x0, symName: __ZNKSt3__16vectorIP5LayerNS_9allocatorIS2_EEE17__annotate_deleteB7v160002Ev, symObjAddr: 0x35FC, symBinAddr: 0x100007AFC, symSize: 0xB8 }
  - { offsetInCU: 0xFCC1, offset: 0xFCC1, size: 0x8, addend: 0x0, symName: __ZNSt3__116reverse_iteratorIPP5LayerEC1B7v160002ES3_, symObjAddr: 0x379C, symBinAddr: 0x100007C9C, symSize: 0x34 }
  - { offsetInCU: 0xFCF7, offset: 0xFCF7, size: 0x8, addend: 0x0, symName: __ZNKSt3__116reverse_iteratorIPP5LayerE4baseB7v160002Ev, symObjAddr: 0x37D0, symBinAddr: 0x100007CD0, symSize: 0x18 }
  - { offsetInCU: 0xFD1C, offset: 0xFD1C, size: 0x8, addend: 0x0, symName: __ZNKSt3__16vectorIP5LayerNS_9allocatorIS2_EEE14__annotate_newB7v160002Em, symObjAddr: 0x3824, symBinAddr: 0x100007D24, symSize: 0xAC }
  - { offsetInCU: 0xFD4E, offset: 0xFD4E, size: 0x8, addend: 0x0, symName: __ZNKSt3__16vectorIP5LayerNS_9allocatorIS2_EEE31__annotate_contiguous_containerB7v160002EPKvS7_S7_S7_, symObjAddr: 0x38E0, symBinAddr: 0x100007DE0, symSize: 0x20 }
  - { offsetInCU: 0xFD9F, offset: 0xFD9F, size: 0x8, addend: 0x0, symName: __ZNKSt3__16vectorIP5LayerNS_9allocatorIS2_EEE4dataB7v160002Ev, symObjAddr: 0x3900, symBinAddr: 0x100007E00, symSize: 0x28 }
  - { offsetInCU: 0xFDC2, offset: 0xFDC2, size: 0x8, addend: 0x0, symName: __ZNKSt3__116reverse_iteratorIPP5LayerEdeB7v160002Ev, symObjAddr: 0x39C0, symBinAddr: 0x100007EC0, symSize: 0x28 }
  - { offsetInCU: 0xFDF4, offset: 0xFDF4, size: 0x8, addend: 0x0, symName: __ZNSt3__116reverse_iteratorIPP5LayerEppB7v160002Ev, symObjAddr: 0x39E8, symBinAddr: 0x100007EE8, symSize: 0x20 }
  - { offsetInCU: 0xFE1E, offset: 0xFE1E, size: 0x8, addend: 0x0, symName: __ZNSt3__119__to_address_helperINS_16reverse_iteratorIPP5LayerEEvE6__callB7v160002ERKS5_, symObjAddr: 0x3A80, symBinAddr: 0x100007F80, symSize: 0x4C }
  - { offsetInCU: 0xFE41, offset: 0xFE41, size: 0x8, addend: 0x0, symName: __ZNKSt3__116reverse_iteratorIPP5LayerEptB7v160002Ev, symObjAddr: 0x3ACC, symBinAddr: 0x100007FCC, symSize: 0x24 }
  - { offsetInCU: 0xFE88, offset: 0xFE88, size: 0x8, addend: 0x0, symName: __ZNKSt3__111__move_loopINS_17_ClassicAlgPolicyEEclB7v160002INS_16reverse_iteratorIPP5LayerEES8_S8_EENS_4pairIT_T1_EESA_T0_SB_, symObjAddr: 0x3D80, symBinAddr: 0x100008280, symSize: 0xA0 }
  - { offsetInCU: 0xFEF1, offset: 0xFEF1, size: 0x8, addend: 0x0, symName: __ZNSt3__18_IterOpsINS_17_ClassicAlgPolicyEE11__iter_moveB7v160002IRNS_16reverse_iteratorIPP5LayerEEEENS_9enable_ifIXsr12is_referenceIDTdeclsr3stdE7declvalIRT_EEEEE5valueEDTclsr3stdE4movedeclsr3stdE7declvalISC_EEEEE4typeEOSB_, symObjAddr: 0x3F80, symBinAddr: 0x100008480, symSize: 0x28 }
  - { offsetInCU: 0xFF1D, offset: 0xFF1D, size: 0x8, addend: 0x0, symName: __ZNSt3__18_IterOpsINS_17_ClassicAlgPolicyEE25__validate_iter_referenceB7v160002IRNS_16reverse_iteratorIPP5LayerEEEEvv, symObjAddr: 0x3FA8, symBinAddr: 0x1000084A8, symSize: 0x4 }
  - { offsetInCU: 0xFF3B, offset: 0xFF3B, size: 0x8, addend: 0x0, symName: __ZNSt3__118__unwrap_iter_implINS_16reverse_iteratorIPP5LayerEELb0EE8__unwrapB7v160002ES5_, symObjAddr: 0x3FAC, symBinAddr: 0x1000084AC, symSize: 0x24 }
  - { offsetInCU: 0xFF5D, offset: 0xFF5D, size: 0x8, addend: 0x0, symName: __ZNSt3__14pairINS_16reverse_iteratorIPP5LayerEES5_EC1B7v160002ERKS5_S8_, symObjAddr: 0x3FD0, symBinAddr: 0x1000084D0, symSize: 0x3C }
  - { offsetInCU: 0xFFA2, offset: 0xFFA2, size: 0x8, addend: 0x0, symName: __ZNSt3__14pairINS_16reverse_iteratorIPP5LayerEES5_EC2B7v160002ERKS5_S8_, symObjAddr: 0x400C, symBinAddr: 0x10000850C, symSize: 0x34 }
  - { offsetInCU: 0xFFE7, offset: 0xFFE7, size: 0x8, addend: 0x0, symName: __ZNSt3__118__unwrap_iter_implINS_16reverse_iteratorIPP5LayerEELb0EE8__rewrapB7v160002ES5_S5_, symObjAddr: 0x4040, symBinAddr: 0x100008540, symSize: 0x2C }
  - { offsetInCU: 0x10015, offset: 0x10015, size: 0x8, addend: 0x0, symName: __ZNSt3__116reverse_iteratorIPP5LayerEC2B7v160002ES3_, symObjAddr: 0x406C, symBinAddr: 0x10000856C, symSize: 0x28 }
  - { offsetInCU: 0x1004B, offset: 0x1004B, size: 0x8, addend: 0x0, symName: __ZNSt3__114__split_bufferIP5LayerRNS_9allocatorIS2_EEED2Ev, symObjAddr: 0x4094, symBinAddr: 0x100008594, symSize: 0x80 }
  - { offsetInCU: 0x10076, offset: 0x10076, size: 0x8, addend: 0x0, symName: __ZNSt3__114__split_bufferIP5LayerRNS_9allocatorIS2_EEE5clearB7v160002Ev, symObjAddr: 0x4114, symBinAddr: 0x100008614, symSize: 0x28 }
  - { offsetInCU: 0x1009A, offset: 0x1009A, size: 0x8, addend: 0x0, symName: __ZNSt3__116allocator_traitsINS_9allocatorIP5LayerEEE10deallocateB7v160002ERS4_PS3_m, symObjAddr: 0x413C, symBinAddr: 0x10000863C, symSize: 0x34 }
  - { offsetInCU: 0x100DC, offset: 0x100DC, size: 0x8, addend: 0x0, symName: __ZNKSt3__114__split_bufferIP5LayerRNS_9allocatorIS2_EEE8capacityB7v160002Ev, symObjAddr: 0x4170, symBinAddr: 0x100008670, symSize: 0x40 }
  - { offsetInCU: 0x10100, offset: 0x10100, size: 0x8, addend: 0x0, symName: __ZNSt3__114__split_bufferIP5LayerRNS_9allocatorIS2_EEE17__destruct_at_endB7v160002EPS2_, symObjAddr: 0x41B0, symBinAddr: 0x1000086B0, symSize: 0x2C }
  - { offsetInCU: 0x10131, offset: 0x10131, size: 0x8, addend: 0x0, symName: __ZNSt3__114__split_bufferIP5LayerRNS_9allocatorIS2_EEE17__destruct_at_endB7v160002EPS2_NS_17integral_constantIbLb0EEE, symObjAddr: 0x41DC, symBinAddr: 0x1000086DC, symSize: 0x94 }
  - { offsetInCU: 0x10171, offset: 0x10171, size: 0x8, addend: 0x0, symName: __ZNSt3__116allocator_traitsINS_9allocatorIP5LayerEEE7destroyB7v160002IS3_vEEvRS4_PT_, symObjAddr: 0x4270, symBinAddr: 0x100008770, symSize: 0x2C }
  - { offsetInCU: 0x101AD, offset: 0x101AD, size: 0x8, addend: 0x0, symName: __ZNSt3__19allocatorIP5LayerE7destroyB7v160002EPS2_, symObjAddr: 0x429C, symBinAddr: 0x10000879C, symSize: 0x14 }
  - { offsetInCU: 0x101E0, offset: 0x101E0, size: 0x8, addend: 0x0, symName: __ZNSt3__19allocatorIP5LayerE10deallocateB7v160002EPS2_m, symObjAddr: 0x42B0, symBinAddr: 0x1000087B0, symSize: 0x70 }
  - { offsetInCU: 0x10220, offset: 0x10220, size: 0x8, addend: 0x0, symName: __ZNKSt3__114__split_bufferIP5LayerRNS_9allocatorIS2_EEE9__end_capB7v160002Ev, symObjAddr: 0x439C, symBinAddr: 0x10000889C, symSize: 0x28 }
  - { offsetInCU: 0x10244, offset: 0x10244, size: 0x8, addend: 0x0, symName: __ZNKSt3__117__compressed_pairIPP5LayerRNS_9allocatorIS2_EEE5firstB7v160002Ev, symObjAddr: 0x43C4, symBinAddr: 0x1000088C4, symSize: 0x24 }
  - { offsetInCU: 0x10267, offset: 0x10267, size: 0x8, addend: 0x0, symName: __ZN9ConvLayerC2ENSt3__16vectorINS1_INS1_INS1_IdNS0_9allocatorIdEEEENS2_IS4_EEEENS2_IS6_EEEENS2_IS8_EEEEii, symObjAddr: 0x43E8, symBinAddr: 0x1000088E8, symSize: 0x74 }
  - { offsetInCU: 0x102BB, offset: 0x102BB, size: 0x8, addend: 0x0, symName: __ZN5LayerC2Ev, symObjAddr: 0x445C, symBinAddr: 0x10000895C, symSize: 0x24 }
  - { offsetInCU: 0x102E5, offset: 0x102E5, size: 0x8, addend: 0x0, symName: __ZNSt3__16vectorINS0_INS0_INS0_IdNS_9allocatorIdEEEENS1_IS3_EEEENS1_IS5_EEEENS1_IS7_EEEC1ERKS9_, symObjAddr: 0x4480, symBinAddr: 0x100008980, symSize: 0x34 }
  - { offsetInCU: 0x1031F, offset: 0x1031F, size: 0x8, addend: 0x0, symName: __ZN9ConvLayer7forwardERNSt3__16vectorINS1_INS1_IdNS0_9allocatorIdEEEENS2_IS4_EEEENS2_IS6_EEEE, symObjAddr: 0x44B4, symBinAddr: 0x1000089B4, symSize: 0x90 }
  - { offsetInCU: 0x10350, offset: 0x10350, size: 0x8, addend: 0x0, symName: __ZNSt3__16vectorINS0_INS0_INS0_IdNS_9allocatorIdEEEENS1_IS3_EEEENS1_IS5_EEEENS1_IS7_EEEC2ERKS9_, symObjAddr: 0x4544, symBinAddr: 0x100008A44, symSize: 0x11C }
  - { offsetInCU: 0x103B8, offset: 0x103B8, size: 0x8, addend: 0x0, symName: __ZNSt3__116allocator_traitsINS_9allocatorINS_6vectorINS2_INS2_IdNS1_IdEEEENS1_IS4_EEEENS1_IS6_EEEEEEE37select_on_container_copy_constructionB7v160002IS9_vvEES9_RKS9_, symObjAddr: 0x4660, symBinAddr: 0x100008B60, symSize: 0x10 }
  - { offsetInCU: 0x103E7, offset: 0x103E7, size: 0x8, addend: 0x0, symName: __ZNKSt3__16vectorINS0_INS0_INS0_IdNS_9allocatorIdEEEENS1_IS3_EEEENS1_IS5_EEEENS1_IS7_EEE7__allocB7v160002Ev, symObjAddr: 0x4670, symBinAddr: 0x100008B70, symSize: 0x28 }
  - { offsetInCU: 0x1040F, offset: 0x1040F, size: 0x8, addend: 0x0, symName: __ZNSt3__117__compressed_pairIPNS_6vectorINS1_INS1_IdNS_9allocatorIdEEEENS2_IS4_EEEENS2_IS6_EEEENS2_IS8_EEEC1B7v160002IDnSA_EEOT_OT0_, symObjAddr: 0x4698, symBinAddr: 0x100008B98, symSize: 0x3C }
  - { offsetInCU: 0x10465, offset: 0x10465, size: 0x8, addend: 0x0, symName: __ZNSt3__16vectorINS0_INS0_INS0_IdNS_9allocatorIdEEEENS1_IS3_EEEENS1_IS5_EEEENS1_IS7_EEE16__destroy_vectorC1ERS9_, symObjAddr: 0x4714, symBinAddr: 0x100008C14, symSize: 0x34 }
  - { offsetInCU: 0x1049D, offset: 0x1049D, size: 0x8, addend: 0x0, symName: __ZNSt3__16vectorINS0_INS0_INS0_IdNS_9allocatorIdEEEENS1_IS3_EEEENS1_IS5_EEEENS1_IS7_EEE11__vallocateB7v160002Em, symObjAddr: 0x4758, symBinAddr: 0x100008C58, symSize: 0xB4 }
  - { offsetInCU: 0x104DE, offset: 0x104DE, size: 0x8, addend: 0x0, symName: __ZNSt3__16vectorINS0_INS0_INS0_IdNS_9allocatorIdEEEENS1_IS3_EEEENS1_IS5_EEEENS1_IS7_EEE18__construct_at_endIPS7_Li0EEEvT_SC_m, symObjAddr: 0x480C, symBinAddr: 0x100008D0C, symSize: 0x94 }
  - { offsetInCU: 0x1054F, offset: 0x1054F, size: 0x8, addend: 0x0, symName: __ZNSt3__128__exception_guard_exceptionsINS_6vectorINS1_INS1_INS1_IdNS_9allocatorIdEEEENS2_IS4_EEEENS2_IS6_EEEENS2_IS8_EEE16__destroy_vectorEE10__completeB7v160002Ev, symObjAddr: 0x48A0, symBinAddr: 0x100008DA0, symSize: 0x1C }
  - { offsetInCU: 0x10573, offset: 0x10573, size: 0x8, addend: 0x0, symName: __ZNSt3__128__exception_guard_exceptionsINS_6vectorINS1_INS1_INS1_IdNS_9allocatorIdEEEENS2_IS4_EEEENS2_IS6_EEEENS2_IS8_EEE16__destroy_vectorEED1B7v160002Ev, symObjAddr: 0x48BC, symBinAddr: 0x100008DBC, symSize: 0x2C }
  - { offsetInCU: 0x1059C, offset: 0x1059C, size: 0x8, addend: 0x0, symName: __ZNKSt3__117__compressed_pairIPNS_6vectorINS1_INS1_IdNS_9allocatorIdEEEENS2_IS4_EEEENS2_IS6_EEEENS2_IS8_EEE6secondB7v160002Ev, symObjAddr: 0x48E8, symBinAddr: 0x100008DE8, symSize: 0x24 }
  - { offsetInCU: 0x105BF, offset: 0x105BF, size: 0x8, addend: 0x0, symName: __ZNKSt3__122__compressed_pair_elemINS_9allocatorINS_6vectorINS2_INS2_IdNS1_IdEEEENS1_IS4_EEEENS1_IS6_EEEEEELi1ELb1EE5__getB7v160002Ev, symObjAddr: 0x490C, symBinAddr: 0x100008E0C, symSize: 0x14 }
  - { offsetInCU: 0x105E3, offset: 0x105E3, size: 0x8, addend: 0x0, symName: __ZNSt3__117__compressed_pairIPNS_6vectorINS1_INS1_IdNS_9allocatorIdEEEENS2_IS4_EEEENS2_IS6_EEEENS2_IS8_EEEC2B7v160002IDnSA_EEOT_OT0_, symObjAddr: 0x4920, symBinAddr: 0x100008E20, symSize: 0x44 }
  - { offsetInCU: 0x1063A, offset: 0x1063A, size: 0x8, addend: 0x0, symName: __ZNSt3__122__compressed_pair_elemIPNS_6vectorINS1_INS1_IdNS_9allocatorIdEEEENS2_IS4_EEEENS2_IS6_EEEELi0ELb0EEC2B7v160002IDnvEEOT_, symObjAddr: 0x4964, symBinAddr: 0x100008E64, symSize: 0x1C }
  - { offsetInCU: 0x1067B, offset: 0x1067B, size: 0x8, addend: 0x0, symName: __ZNSt3__122__compressed_pair_elemINS_9allocatorINS_6vectorINS2_INS2_IdNS1_IdEEEENS1_IS4_EEEENS1_IS6_EEEEEELi1ELb1EEC2B7v160002IS9_vEEOT_, symObjAddr: 0x4980, symBinAddr: 0x100008E80, symSize: 0x18 }
  - { offsetInCU: 0x106BB, offset: 0x106BB, size: 0x8, addend: 0x0, symName: __ZNSt3__128__exception_guard_exceptionsINS_6vectorINS1_INS1_INS1_IdNS_9allocatorIdEEEENS2_IS4_EEEENS2_IS6_EEEENS2_IS8_EEE16__destroy_vectorEEC1B7v160002ESB_, symObjAddr: 0x4998, symBinAddr: 0x100008E98, symSize: 0x34 }
  - { offsetInCU: 0x106F2, offset: 0x106F2, size: 0x8, addend: 0x0, symName: __ZNSt3__128__exception_guard_exceptionsINS_6vectorINS1_INS1_INS1_IdNS_9allocatorIdEEEENS2_IS4_EEEENS2_IS6_EEEENS2_IS8_EEE16__destroy_vectorEEC2B7v160002ESB_, symObjAddr: 0x49CC, symBinAddr: 0x100008ECC, symSize: 0x24 }
  - { offsetInCU: 0x10729, offset: 0x10729, size: 0x8, addend: 0x0, symName: __ZNSt3__16vectorINS0_INS0_INS0_IdNS_9allocatorIdEEEENS1_IS3_EEEENS1_IS5_EEEENS1_IS7_EEE16__destroy_vectorC2ERS9_, symObjAddr: 0x49F0, symBinAddr: 0x100008EF0, symSize: 0x20 }
  - { offsetInCU: 0x10760, offset: 0x10760, size: 0x8, addend: 0x0, symName: __ZNKSt3__16vectorINS0_INS0_INS0_IdNS_9allocatorIdEEEENS1_IS3_EEEENS1_IS5_EEEENS1_IS7_EEE8max_sizeEv, symObjAddr: 0x4A10, symBinAddr: 0x100008F10, symSize: 0x74 }
  - { offsetInCU: 0x10787, offset: 0x10787, size: 0x8, addend: 0x0, symName: __ZNKSt3__16vectorINS0_INS0_INS0_IdNS_9allocatorIdEEEENS1_IS3_EEEENS1_IS5_EEEENS1_IS7_EEE20__throw_length_errorB7v160002Ev, symObjAddr: 0x4A84, symBinAddr: 0x100008F84, symSize: 0x1C }
  - { offsetInCU: 0x107AB, offset: 0x107AB, size: 0x8, addend: 0x0, symName: __ZNSt3__16vectorINS0_INS0_INS0_IdNS_9allocatorIdEEEENS1_IS3_EEEENS1_IS5_EEEENS1_IS7_EEE7__allocB7v160002Ev, symObjAddr: 0x4AE0, symBinAddr: 0x100008FE0, symSize: 0x28 }
  - { offsetInCU: 0x107CF, offset: 0x107CF, size: 0x8, addend: 0x0, symName: __ZNSt3__16vectorINS0_INS0_INS0_IdNS_9allocatorIdEEEENS1_IS3_EEEENS1_IS5_EEEENS1_IS7_EEE9__end_capB7v160002Ev, symObjAddr: 0x4B08, symBinAddr: 0x100009008, symSize: 0x28 }
  - { offsetInCU: 0x107F3, offset: 0x107F3, size: 0x8, addend: 0x0, symName: __ZNKSt3__16vectorINS0_INS0_INS0_IdNS_9allocatorIdEEEENS1_IS3_EEEENS1_IS5_EEEENS1_IS7_EEE14__annotate_newB7v160002Em, symObjAddr: 0x4B30, symBinAddr: 0x100009030, symSize: 0xC8 }
  - { offsetInCU: 0x10826, offset: 0x10826, size: 0x8, addend: 0x0, symName: __ZNSt3__116allocator_traitsINS_9allocatorINS_6vectorINS2_INS2_IdNS1_IdEEEENS1_IS4_EEEENS1_IS6_EEEEEEE8max_sizeB7v160002IS9_vEEmRKS9_, symObjAddr: 0x4BF8, symBinAddr: 0x1000090F8, symSize: 0x24 }
  - { offsetInCU: 0x10853, offset: 0x10853, size: 0x8, addend: 0x0, symName: __ZNKSt3__19allocatorINS_6vectorINS1_INS1_IdNS0_IdEEEENS0_IS3_EEEENS0_IS5_EEEEE8max_sizeB7v160002Ev, symObjAddr: 0x4C1C, symBinAddr: 0x10000911C, symSize: 0x18 }
  - { offsetInCU: 0x10878, offset: 0x10878, size: 0x8, addend: 0x0, symName: __ZNSt3__19allocatorINS_6vectorINS1_INS1_IdNS0_IdEEEENS0_IS3_EEEENS0_IS5_EEEEE8allocateB7v160002Em, symObjAddr: 0x4C34, symBinAddr: 0x100009134, symSize: 0x8C }
  - { offsetInCU: 0x108AA, offset: 0x108AA, size: 0x8, addend: 0x0, symName: __ZNSt3__117__compressed_pairIPNS_6vectorINS1_INS1_IdNS_9allocatorIdEEEENS2_IS4_EEEENS2_IS6_EEEENS2_IS8_EEE6secondB7v160002Ev, symObjAddr: 0x4CC0, symBinAddr: 0x1000091C0, symSize: 0x24 }
  - { offsetInCU: 0x108CD, offset: 0x108CD, size: 0x8, addend: 0x0, symName: __ZNSt3__122__compressed_pair_elemINS_9allocatorINS_6vectorINS2_INS2_IdNS1_IdEEEENS1_IS4_EEEENS1_IS6_EEEEEELi1ELb1EE5__getB7v160002Ev, symObjAddr: 0x4CE4, symBinAddr: 0x1000091E4, symSize: 0x14 }
  - { offsetInCU: 0x108F2, offset: 0x108F2, size: 0x8, addend: 0x0, symName: __ZNSt3__117__compressed_pairIPNS_6vectorINS1_INS1_IdNS_9allocatorIdEEEENS2_IS4_EEEENS2_IS6_EEEENS2_IS8_EEE5firstB7v160002Ev, symObjAddr: 0x4CF8, symBinAddr: 0x1000091F8, symSize: 0x24 }
  - { offsetInCU: 0x10915, offset: 0x10915, size: 0x8, addend: 0x0, symName: __ZNSt3__122__compressed_pair_elemIPNS_6vectorINS1_INS1_IdNS_9allocatorIdEEEENS2_IS4_EEEENS2_IS6_EEEELi0ELb0EE5__getB7v160002Ev, symObjAddr: 0x4D1C, symBinAddr: 0x10000921C, symSize: 0x14 }
  - { offsetInCU: 0x10939, offset: 0x10939, size: 0x8, addend: 0x0, symName: __ZNKSt3__16vectorINS0_INS0_INS0_IdNS_9allocatorIdEEEENS1_IS3_EEEENS1_IS5_EEEENS1_IS7_EEE31__annotate_contiguous_containerB7v160002EPKvSB_SB_SB_, symObjAddr: 0x4D30, symBinAddr: 0x100009230, symSize: 0x20 }
  - { offsetInCU: 0x1098A, offset: 0x1098A, size: 0x8, addend: 0x0, symName: __ZNKSt3__16vectorINS0_INS0_INS0_IdNS_9allocatorIdEEEENS1_IS3_EEEENS1_IS5_EEEENS1_IS7_EEE4dataB7v160002Ev, symObjAddr: 0x4D50, symBinAddr: 0x100009250, symSize: 0x28 }
  - { offsetInCU: 0x109AE, offset: 0x109AE, size: 0x8, addend: 0x0, symName: __ZNKSt3__16vectorINS0_INS0_INS0_IdNS_9allocatorIdEEEENS1_IS3_EEEENS1_IS5_EEEENS1_IS7_EEE8capacityB7v160002Ev, symObjAddr: 0x4D78, symBinAddr: 0x100009278, symSize: 0x40 }
  - { offsetInCU: 0x109D2, offset: 0x109D2, size: 0x8, addend: 0x0, symName: __ZNKSt3__16vectorINS0_INS0_INS0_IdNS_9allocatorIdEEEENS1_IS3_EEEENS1_IS5_EEEENS1_IS7_EEE9__end_capB7v160002Ev, symObjAddr: 0x4DCC, symBinAddr: 0x1000092CC, symSize: 0x28 }
  - { offsetInCU: 0x109F6, offset: 0x109F6, size: 0x8, addend: 0x0, symName: __ZNKSt3__117__compressed_pairIPNS_6vectorINS1_INS1_IdNS_9allocatorIdEEEENS2_IS4_EEEENS2_IS6_EEEENS2_IS8_EEE5firstB7v160002Ev, symObjAddr: 0x4DF4, symBinAddr: 0x1000092F4, symSize: 0x24 }
  - { offsetInCU: 0x10A19, offset: 0x10A19, size: 0x8, addend: 0x0, symName: __ZNKSt3__122__compressed_pair_elemIPNS_6vectorINS1_INS1_IdNS_9allocatorIdEEEENS2_IS4_EEEENS2_IS6_EEEELi0ELb0EE5__getB7v160002Ev, symObjAddr: 0x4E18, symBinAddr: 0x100009318, symSize: 0x14 }
  - { offsetInCU: 0x10A56, offset: 0x10A56, size: 0x8, addend: 0x0, symName: __ZNSt3__16vectorINS0_INS0_INS0_IdNS_9allocatorIdEEEENS1_IS3_EEEENS1_IS5_EEEENS1_IS7_EEE21_ConstructTransactionC1B7v160002ERS9_m, symObjAddr: 0x4E2C, symBinAddr: 0x10000932C, symSize: 0x3C }
  - { offsetInCU: 0x10A9C, offset: 0x10A9C, size: 0x8, addend: 0x0, symName: __ZNSt3__16vectorINS0_INS0_INS0_IdNS_9allocatorIdEEEENS1_IS3_EEEENS1_IS5_EEEENS1_IS7_EEE21_ConstructTransactionD1B7v160002Ev, symObjAddr: 0x4F64, symBinAddr: 0x100009464, symSize: 0x2C }
  - { offsetInCU: 0x10AC5, offset: 0x10AC5, size: 0x8, addend: 0x0, symName: __ZNSt3__16vectorINS0_INS0_INS0_IdNS_9allocatorIdEEEENS1_IS3_EEEENS1_IS5_EEEENS1_IS7_EEE21_ConstructTransactionC2B7v160002ERS9_m, symObjAddr: 0x4F90, symBinAddr: 0x100009490, symSize: 0x4C }
  - { offsetInCU: 0x10B0B, offset: 0x10B0B, size: 0x8, addend: 0x0, symName: __ZNSt3__129_AllocatorDestroyRangeReverseINS_9allocatorINS_6vectorINS2_INS2_IdNS1_IdEEEENS1_IS4_EEEENS1_IS6_EEEEEEPS8_EC1B7v160002ERS9_RSA_SD_, symObjAddr: 0x5028, symBinAddr: 0x100009528, symSize: 0x44 }
  - { offsetInCU: 0x10B61, offset: 0x10B61, size: 0x8, addend: 0x0, symName: __ZNSt3__116allocator_traitsINS_9allocatorINS_6vectorINS2_INS2_IdNS1_IdEEEENS1_IS4_EEEENS1_IS6_EEEEEEE9constructB7v160002IS8_JRS8_EvEEvRS9_PT_DpOT0_, symObjAddr: 0x506C, symBinAddr: 0x10000956C, symSize: 0x34 }
  - { offsetInCU: 0x10BB7, offset: 0x10BB7, size: 0x8, addend: 0x0, symName: __ZNSt3__128__exception_guard_exceptionsINS_29_AllocatorDestroyRangeReverseINS_9allocatorINS_6vectorINS3_INS3_IdNS2_IdEEEENS2_IS5_EEEENS2_IS7_EEEEEEPS9_EEE10__completeB7v160002Ev, symObjAddr: 0x50A0, symBinAddr: 0x1000095A0, symSize: 0x1C }
  - { offsetInCU: 0x10BDB, offset: 0x10BDB, size: 0x8, addend: 0x0, symName: __ZNSt3__128__exception_guard_exceptionsINS_29_AllocatorDestroyRangeReverseINS_9allocatorINS_6vectorINS3_INS3_IdNS2_IdEEEENS2_IS5_EEEENS2_IS7_EEEEEEPS9_EEED1B7v160002Ev, symObjAddr: 0x50BC, symBinAddr: 0x1000095BC, symSize: 0x2C }
  - { offsetInCU: 0x10C03, offset: 0x10C03, size: 0x8, addend: 0x0, symName: __ZNSt3__128__exception_guard_exceptionsINS_29_AllocatorDestroyRangeReverseINS_9allocatorINS_6vectorINS3_INS3_IdNS2_IdEEEENS2_IS5_EEEENS2_IS7_EEEEEEPS9_EEEC1B7v160002ESC_, symObjAddr: 0x50E8, symBinAddr: 0x1000095E8, symSize: 0x34 }
  - { offsetInCU: 0x10C3B, offset: 0x10C3B, size: 0x8, addend: 0x0, symName: __ZNSt3__128__exception_guard_exceptionsINS_29_AllocatorDestroyRangeReverseINS_9allocatorINS_6vectorINS3_INS3_IdNS2_IdEEEENS2_IS5_EEEENS2_IS7_EEEEEEPS9_EEEC2B7v160002ESC_, symObjAddr: 0x511C, symBinAddr: 0x10000961C, symSize: 0x30 }
  - { offsetInCU: 0x10C73, offset: 0x10C73, size: 0x8, addend: 0x0, symName: __ZNSt3__129_AllocatorDestroyRangeReverseINS_9allocatorINS_6vectorINS2_INS2_IdNS1_IdEEEENS1_IS4_EEEENS1_IS6_EEEEEEPS8_EC2B7v160002ERS9_RSA_SD_, symObjAddr: 0x514C, symBinAddr: 0x10000964C, symSize: 0x38 }
  - { offsetInCU: 0x10CC9, offset: 0x10CC9, size: 0x8, addend: 0x0, symName: __ZNSt3__19allocatorINS_6vectorINS1_INS1_IdNS0_IdEEEENS0_IS3_EEEENS0_IS5_EEEEE9constructB7v160002IS7_JRS7_EEEvPT_DpOT0_, symObjAddr: 0x5184, symBinAddr: 0x100009684, symSize: 0x30 }
  - { offsetInCU: 0x10D1C, offset: 0x10D1C, size: 0x8, addend: 0x0, symName: __ZNSt3__16vectorINS0_INS0_IdNS_9allocatorIdEEEENS1_IS3_EEEENS1_IS5_EEEC1ERKS7_, symObjAddr: 0x51B4, symBinAddr: 0x1000096B4, symSize: 0x34 }
  - { offsetInCU: 0x10D55, offset: 0x10D55, size: 0x8, addend: 0x0, symName: __ZNSt3__16vectorINS0_INS0_IdNS_9allocatorIdEEEENS1_IS3_EEEENS1_IS5_EEEC2ERKS7_, symObjAddr: 0x51E8, symBinAddr: 0x1000096E8, symSize: 0x11C }
  - { offsetInCU: 0x10DBD, offset: 0x10DBD, size: 0x8, addend: 0x0, symName: __ZNSt3__116allocator_traitsINS_9allocatorINS_6vectorINS2_IdNS1_IdEEEENS1_IS4_EEEEEEE37select_on_container_copy_constructionB7v160002IS7_vvEES7_RKS7_, symObjAddr: 0x5304, symBinAddr: 0x100009804, symSize: 0x10 }
  - { offsetInCU: 0x10DEC, offset: 0x10DEC, size: 0x8, addend: 0x0, symName: __ZNKSt3__16vectorINS0_INS0_IdNS_9allocatorIdEEEENS1_IS3_EEEENS1_IS5_EEE7__allocB7v160002Ev, symObjAddr: 0x5314, symBinAddr: 0x100009814, symSize: 0x28 }
  - { offsetInCU: 0x10E14, offset: 0x10E14, size: 0x8, addend: 0x0, symName: __ZNSt3__117__compressed_pairIPNS_6vectorINS1_IdNS_9allocatorIdEEEENS2_IS4_EEEENS2_IS6_EEEC1B7v160002IDnS8_EEOT_OT0_, symObjAddr: 0x533C, symBinAddr: 0x10000983C, symSize: 0x3C }
  - { offsetInCU: 0x10E6A, offset: 0x10E6A, size: 0x8, addend: 0x0, symName: __ZNSt3__16vectorINS0_INS0_IdNS_9allocatorIdEEEENS1_IS3_EEEENS1_IS5_EEE16__destroy_vectorC1ERS7_, symObjAddr: 0x53B8, symBinAddr: 0x1000098B8, symSize: 0x34 }
  - { offsetInCU: 0x10EA2, offset: 0x10EA2, size: 0x8, addend: 0x0, symName: __ZNSt3__16vectorINS0_INS0_IdNS_9allocatorIdEEEENS1_IS3_EEEENS1_IS5_EEE11__vallocateB7v160002Em, symObjAddr: 0x53FC, symBinAddr: 0x1000098FC, symSize: 0xB4 }
  - { offsetInCU: 0x10EE3, offset: 0x10EE3, size: 0x8, addend: 0x0, symName: __ZNSt3__16vectorINS0_INS0_IdNS_9allocatorIdEEEENS1_IS3_EEEENS1_IS5_EEE18__construct_at_endIPS5_Li0EEEvT_SA_m, symObjAddr: 0x54B0, symBinAddr: 0x1000099B0, symSize: 0x94 }
  - { offsetInCU: 0x10F54, offset: 0x10F54, size: 0x8, addend: 0x0, symName: __ZNSt3__128__exception_guard_exceptionsINS_6vectorINS1_INS1_IdNS_9allocatorIdEEEENS2_IS4_EEEENS2_IS6_EEE16__destroy_vectorEE10__completeB7v160002Ev, symObjAddr: 0x5544, symBinAddr: 0x100009A44, symSize: 0x1C }
  - { offsetInCU: 0x10F78, offset: 0x10F78, size: 0x8, addend: 0x0, symName: __ZNSt3__128__exception_guard_exceptionsINS_6vectorINS1_INS1_IdNS_9allocatorIdEEEENS2_IS4_EEEENS2_IS6_EEE16__destroy_vectorEED1B7v160002Ev, symObjAddr: 0x5560, symBinAddr: 0x100009A60, symSize: 0x2C }
  - { offsetInCU: 0x10FA1, offset: 0x10FA1, size: 0x8, addend: 0x0, symName: __ZNKSt3__117__compressed_pairIPNS_6vectorINS1_IdNS_9allocatorIdEEEENS2_IS4_EEEENS2_IS6_EEE6secondB7v160002Ev, symObjAddr: 0x558C, symBinAddr: 0x100009A8C, symSize: 0x24 }
  - { offsetInCU: 0x10FC4, offset: 0x10FC4, size: 0x8, addend: 0x0, symName: __ZNKSt3__122__compressed_pair_elemINS_9allocatorINS_6vectorINS2_IdNS1_IdEEEENS1_IS4_EEEEEELi1ELb1EE5__getB7v160002Ev, symObjAddr: 0x55B0, symBinAddr: 0x100009AB0, symSize: 0x14 }
  - { offsetInCU: 0x10FE8, offset: 0x10FE8, size: 0x8, addend: 0x0, symName: __ZNSt3__117__compressed_pairIPNS_6vectorINS1_IdNS_9allocatorIdEEEENS2_IS4_EEEENS2_IS6_EEEC2B7v160002IDnS8_EEOT_OT0_, symObjAddr: 0x55C4, symBinAddr: 0x100009AC4, symSize: 0x44 }
  - { offsetInCU: 0x1103F, offset: 0x1103F, size: 0x8, addend: 0x0, symName: __ZNSt3__122__compressed_pair_elemIPNS_6vectorINS1_IdNS_9allocatorIdEEEENS2_IS4_EEEELi0ELb0EEC2B7v160002IDnvEEOT_, symObjAddr: 0x5608, symBinAddr: 0x100009B08, symSize: 0x1C }
  - { offsetInCU: 0x11080, offset: 0x11080, size: 0x8, addend: 0x0, symName: __ZNSt3__122__compressed_pair_elemINS_9allocatorINS_6vectorINS2_IdNS1_IdEEEENS1_IS4_EEEEEELi1ELb1EEC2B7v160002IS7_vEEOT_, symObjAddr: 0x5624, symBinAddr: 0x100009B24, symSize: 0x18 }
  - { offsetInCU: 0x110C0, offset: 0x110C0, size: 0x8, addend: 0x0, symName: __ZNSt3__128__exception_guard_exceptionsINS_6vectorINS1_INS1_IdNS_9allocatorIdEEEENS2_IS4_EEEENS2_IS6_EEE16__destroy_vectorEEC1B7v160002ES9_, symObjAddr: 0x563C, symBinAddr: 0x100009B3C, symSize: 0x34 }
  - { offsetInCU: 0x110F7, offset: 0x110F7, size: 0x8, addend: 0x0, symName: __ZNSt3__128__exception_guard_exceptionsINS_6vectorINS1_INS1_IdNS_9allocatorIdEEEENS2_IS4_EEEENS2_IS6_EEE16__destroy_vectorEEC2B7v160002ES9_, symObjAddr: 0x5670, symBinAddr: 0x100009B70, symSize: 0x24 }
  - { offsetInCU: 0x1112E, offset: 0x1112E, size: 0x8, addend: 0x0, symName: __ZNSt3__16vectorINS0_INS0_IdNS_9allocatorIdEEEENS1_IS3_EEEENS1_IS5_EEE16__destroy_vectorC2ERS7_, symObjAddr: 0x5694, symBinAddr: 0x100009B94, symSize: 0x20 }
  - { offsetInCU: 0x11165, offset: 0x11165, size: 0x8, addend: 0x0, symName: __ZNKSt3__16vectorINS0_INS0_IdNS_9allocatorIdEEEENS1_IS3_EEEENS1_IS5_EEE8max_sizeEv, symObjAddr: 0x56B4, symBinAddr: 0x100009BB4, symSize: 0x74 }
  - { offsetInCU: 0x1118C, offset: 0x1118C, size: 0x8, addend: 0x0, symName: __ZNKSt3__16vectorINS0_INS0_IdNS_9allocatorIdEEEENS1_IS3_EEEENS1_IS5_EEE20__throw_length_errorB7v160002Ev, symObjAddr: 0x5728, symBinAddr: 0x100009C28, symSize: 0x1C }
  - { offsetInCU: 0x111B0, offset: 0x111B0, size: 0x8, addend: 0x0, symName: __ZNSt3__16vectorINS0_INS0_IdNS_9allocatorIdEEEENS1_IS3_EEEENS1_IS5_EEE7__allocB7v160002Ev, symObjAddr: 0x5784, symBinAddr: 0x100009C84, symSize: 0x28 }
  - { offsetInCU: 0x111D4, offset: 0x111D4, size: 0x8, addend: 0x0, symName: __ZNSt3__16vectorINS0_INS0_IdNS_9allocatorIdEEEENS1_IS3_EEEENS1_IS5_EEE9__end_capB7v160002Ev, symObjAddr: 0x57AC, symBinAddr: 0x100009CAC, symSize: 0x28 }
  - { offsetInCU: 0x111F8, offset: 0x111F8, size: 0x8, addend: 0x0, symName: __ZNKSt3__16vectorINS0_INS0_IdNS_9allocatorIdEEEENS1_IS3_EEEENS1_IS5_EEE14__annotate_newB7v160002Em, symObjAddr: 0x57D4, symBinAddr: 0x100009CD4, symSize: 0xC8 }
  - { offsetInCU: 0x1122B, offset: 0x1122B, size: 0x8, addend: 0x0, symName: __ZNSt3__116allocator_traitsINS_9allocatorINS_6vectorINS2_IdNS1_IdEEEENS1_IS4_EEEEEEE8max_sizeB7v160002IS7_vEEmRKS7_, symObjAddr: 0x589C, symBinAddr: 0x100009D9C, symSize: 0x24 }
  - { offsetInCU: 0x11258, offset: 0x11258, size: 0x8, addend: 0x0, symName: __ZNKSt3__19allocatorINS_6vectorINS1_IdNS0_IdEEEENS0_IS3_EEEEE8max_sizeB7v160002Ev, symObjAddr: 0x58C0, symBinAddr: 0x100009DC0, symSize: 0x18 }
  - { offsetInCU: 0x1127D, offset: 0x1127D, size: 0x8, addend: 0x0, symName: __ZNSt3__19allocatorINS_6vectorINS1_IdNS0_IdEEEENS0_IS3_EEEEE8allocateB7v160002Em, symObjAddr: 0x58D8, symBinAddr: 0x100009DD8, symSize: 0x8C }
  - { offsetInCU: 0x112AF, offset: 0x112AF, size: 0x8, addend: 0x0, symName: __ZNSt3__117__compressed_pairIPNS_6vectorINS1_IdNS_9allocatorIdEEEENS2_IS4_EEEENS2_IS6_EEE6secondB7v160002Ev, symObjAddr: 0x5964, symBinAddr: 0x100009E64, symSize: 0x24 }
  - { offsetInCU: 0x112D2, offset: 0x112D2, size: 0x8, addend: 0x0, symName: __ZNSt3__122__compressed_pair_elemINS_9allocatorINS_6vectorINS2_IdNS1_IdEEEENS1_IS4_EEEEEELi1ELb1EE5__getB7v160002Ev, symObjAddr: 0x5988, symBinAddr: 0x100009E88, symSize: 0x14 }
  - { offsetInCU: 0x112F7, offset: 0x112F7, size: 0x8, addend: 0x0, symName: __ZNSt3__117__compressed_pairIPNS_6vectorINS1_IdNS_9allocatorIdEEEENS2_IS4_EEEENS2_IS6_EEE5firstB7v160002Ev, symObjAddr: 0x599C, symBinAddr: 0x100009E9C, symSize: 0x24 }
  - { offsetInCU: 0x1131A, offset: 0x1131A, size: 0x8, addend: 0x0, symName: __ZNSt3__122__compressed_pair_elemIPNS_6vectorINS1_IdNS_9allocatorIdEEEENS2_IS4_EEEELi0ELb0EE5__getB7v160002Ev, symObjAddr: 0x59C0, symBinAddr: 0x100009EC0, symSize: 0x14 }
  - { offsetInCU: 0x1133E, offset: 0x1133E, size: 0x8, addend: 0x0, symName: __ZNKSt3__16vectorINS0_INS0_IdNS_9allocatorIdEEEENS1_IS3_EEEENS1_IS5_EEE31__annotate_contiguous_containerB7v160002EPKvS9_S9_S9_, symObjAddr: 0x59D4, symBinAddr: 0x100009ED4, symSize: 0x20 }
  - { offsetInCU: 0x1138F, offset: 0x1138F, size: 0x8, addend: 0x0, symName: __ZNKSt3__16vectorINS0_INS0_IdNS_9allocatorIdEEEENS1_IS3_EEEENS1_IS5_EEE4dataB7v160002Ev, symObjAddr: 0x59F4, symBinAddr: 0x100009EF4, symSize: 0x28 }
  - { offsetInCU: 0x113B3, offset: 0x113B3, size: 0x8, addend: 0x0, symName: __ZNKSt3__16vectorINS0_INS0_IdNS_9allocatorIdEEEENS1_IS3_EEEENS1_IS5_EEE8capacityB7v160002Ev, symObjAddr: 0x5A1C, symBinAddr: 0x100009F1C, symSize: 0x40 }
  - { offsetInCU: 0x113D7, offset: 0x113D7, size: 0x8, addend: 0x0, symName: __ZNKSt3__16vectorINS0_INS0_IdNS_9allocatorIdEEEENS1_IS3_EEEENS1_IS5_EEE9__end_capB7v160002Ev, symObjAddr: 0x5A70, symBinAddr: 0x100009F70, symSize: 0x28 }
  - { offsetInCU: 0x113FB, offset: 0x113FB, size: 0x8, addend: 0x0, symName: __ZNKSt3__117__compressed_pairIPNS_6vectorINS1_IdNS_9allocatorIdEEEENS2_IS4_EEEENS2_IS6_EEE5firstB7v160002Ev, symObjAddr: 0x5A98, symBinAddr: 0x100009F98, symSize: 0x24 }
  - { offsetInCU: 0x1141E, offset: 0x1141E, size: 0x8, addend: 0x0, symName: __ZNKSt3__122__compressed_pair_elemIPNS_6vectorINS1_IdNS_9allocatorIdEEEENS2_IS4_EEEELi0ELb0EE5__getB7v160002Ev, symObjAddr: 0x5ABC, symBinAddr: 0x100009FBC, symSize: 0x14 }
  - { offsetInCU: 0x1145B, offset: 0x1145B, size: 0x8, addend: 0x0, symName: __ZNSt3__16vectorINS0_INS0_IdNS_9allocatorIdEEEENS1_IS3_EEEENS1_IS5_EEE21_ConstructTransactionC1B7v160002ERS7_m, symObjAddr: 0x5AD0, symBinAddr: 0x100009FD0, symSize: 0x3C }
  - { offsetInCU: 0x114A1, offset: 0x114A1, size: 0x8, addend: 0x0, symName: __ZNSt3__16vectorINS0_INS0_IdNS_9allocatorIdEEEENS1_IS3_EEEENS1_IS5_EEE21_ConstructTransactionD1B7v160002Ev, symObjAddr: 0x5C08, symBinAddr: 0x10000A108, symSize: 0x2C }
  - { offsetInCU: 0x114CA, offset: 0x114CA, size: 0x8, addend: 0x0, symName: __ZNSt3__16vectorINS0_INS0_IdNS_9allocatorIdEEEENS1_IS3_EEEENS1_IS5_EEE21_ConstructTransactionC2B7v160002ERS7_m, symObjAddr: 0x5C34, symBinAddr: 0x10000A134, symSize: 0x4C }
  - { offsetInCU: 0x11510, offset: 0x11510, size: 0x8, addend: 0x0, symName: __ZNSt3__129_AllocatorDestroyRangeReverseINS_9allocatorINS_6vectorINS2_IdNS1_IdEEEENS1_IS4_EEEEEEPS6_EC1B7v160002ERS7_RS8_SB_, symObjAddr: 0x5CCC, symBinAddr: 0x10000A1CC, symSize: 0x44 }
  - { offsetInCU: 0x11566, offset: 0x11566, size: 0x8, addend: 0x0, symName: __ZNSt3__116allocator_traitsINS_9allocatorINS_6vectorINS2_IdNS1_IdEEEENS1_IS4_EEEEEEE9constructB7v160002IS6_JRS6_EvEEvRS7_PT_DpOT0_, symObjAddr: 0x5D10, symBinAddr: 0x10000A210, symSize: 0x34 }
  - { offsetInCU: 0x115BC, offset: 0x115BC, size: 0x8, addend: 0x0, symName: __ZNSt3__128__exception_guard_exceptionsINS_29_AllocatorDestroyRangeReverseINS_9allocatorINS_6vectorINS3_IdNS2_IdEEEENS2_IS5_EEEEEEPS7_EEE10__completeB7v160002Ev, symObjAddr: 0x5D44, symBinAddr: 0x10000A244, symSize: 0x1C }
  - { offsetInCU: 0x115E0, offset: 0x115E0, size: 0x8, addend: 0x0, symName: __ZNSt3__128__exception_guard_exceptionsINS_29_AllocatorDestroyRangeReverseINS_9allocatorINS_6vectorINS3_IdNS2_IdEEEENS2_IS5_EEEEEEPS7_EEED1B7v160002Ev, symObjAddr: 0x5D60, symBinAddr: 0x10000A260, symSize: 0x2C }
  - { offsetInCU: 0x11608, offset: 0x11608, size: 0x8, addend: 0x0, symName: __ZNSt3__128__exception_guard_exceptionsINS_29_AllocatorDestroyRangeReverseINS_9allocatorINS_6vectorINS3_IdNS2_IdEEEENS2_IS5_EEEEEEPS7_EEEC1B7v160002ESA_, symObjAddr: 0x5D8C, symBinAddr: 0x10000A28C, symSize: 0x34 }
  - { offsetInCU: 0x11640, offset: 0x11640, size: 0x8, addend: 0x0, symName: __ZNSt3__128__exception_guard_exceptionsINS_29_AllocatorDestroyRangeReverseINS_9allocatorINS_6vectorINS3_IdNS2_IdEEEENS2_IS5_EEEEEEPS7_EEEC2B7v160002ESA_, symObjAddr: 0x5DC0, symBinAddr: 0x10000A2C0, symSize: 0x30 }
  - { offsetInCU: 0x11678, offset: 0x11678, size: 0x8, addend: 0x0, symName: __ZNSt3__129_AllocatorDestroyRangeReverseINS_9allocatorINS_6vectorINS2_IdNS1_IdEEEENS1_IS4_EEEEEEPS6_EC2B7v160002ERS7_RS8_SB_, symObjAddr: 0x5DF0, symBinAddr: 0x10000A2F0, symSize: 0x38 }
  - { offsetInCU: 0x116CE, offset: 0x116CE, size: 0x8, addend: 0x0, symName: __ZNSt3__19allocatorINS_6vectorINS1_IdNS0_IdEEEENS0_IS3_EEEEE9constructB7v160002IS5_JRS5_EEEvPT_DpOT0_, symObjAddr: 0x5E28, symBinAddr: 0x10000A328, symSize: 0x30 }
  - { offsetInCU: 0x11721, offset: 0x11721, size: 0x8, addend: 0x0, symName: __ZNSt3__16vectorINS0_IdNS_9allocatorIdEEEENS1_IS3_EEEC1ERKS5_, symObjAddr: 0x5E58, symBinAddr: 0x10000A358, symSize: 0x34 }
  - { offsetInCU: 0x1175A, offset: 0x1175A, size: 0x8, addend: 0x0, symName: __ZNSt3__16vectorINS0_IdNS_9allocatorIdEEEENS1_IS3_EEEC2ERKS5_, symObjAddr: 0x5E8C, symBinAddr: 0x10000A38C, symSize: 0x11C }
  - { offsetInCU: 0x117C2, offset: 0x117C2, size: 0x8, addend: 0x0, symName: __ZNSt3__116allocator_traitsINS_9allocatorINS_6vectorIdNS1_IdEEEEEEE37select_on_container_copy_constructionB7v160002IS5_vvEES5_RKS5_, symObjAddr: 0x5FA8, symBinAddr: 0x10000A4A8, symSize: 0x10 }
  - { offsetInCU: 0x117F1, offset: 0x117F1, size: 0x8, addend: 0x0, symName: __ZNKSt3__16vectorINS0_IdNS_9allocatorIdEEEENS1_IS3_EEE7__allocB7v160002Ev, symObjAddr: 0x5FB8, symBinAddr: 0x10000A4B8, symSize: 0x28 }
  - { offsetInCU: 0x11819, offset: 0x11819, size: 0x8, addend: 0x0, symName: __ZNSt3__117__compressed_pairIPNS_6vectorIdNS_9allocatorIdEEEENS2_IS4_EEEC1B7v160002IDnS6_EEOT_OT0_, symObjAddr: 0x5FE0, symBinAddr: 0x10000A4E0, symSize: 0x3C }
  - { offsetInCU: 0x1186F, offset: 0x1186F, size: 0x8, addend: 0x0, symName: __ZNSt3__16vectorINS0_IdNS_9allocatorIdEEEENS1_IS3_EEE16__destroy_vectorC1ERS5_, symObjAddr: 0x605C, symBinAddr: 0x10000A55C, symSize: 0x34 }
  - { offsetInCU: 0x118A7, offset: 0x118A7, size: 0x8, addend: 0x0, symName: __ZNSt3__16vectorINS0_IdNS_9allocatorIdEEEENS1_IS3_EEE11__vallocateB7v160002Em, symObjAddr: 0x60A0, symBinAddr: 0x10000A5A0, symSize: 0xB4 }
  - { offsetInCU: 0x118E8, offset: 0x118E8, size: 0x8, addend: 0x0, symName: __ZNSt3__16vectorINS0_IdNS_9allocatorIdEEEENS1_IS3_EEE18__construct_at_endIPS3_Li0EEEvT_S8_m, symObjAddr: 0x6154, symBinAddr: 0x10000A654, symSize: 0x94 }
  - { offsetInCU: 0x11959, offset: 0x11959, size: 0x8, addend: 0x0, symName: __ZNSt3__128__exception_guard_exceptionsINS_6vectorINS1_IdNS_9allocatorIdEEEENS2_IS4_EEE16__destroy_vectorEE10__completeB7v160002Ev, symObjAddr: 0x61E8, symBinAddr: 0x10000A6E8, symSize: 0x1C }
  - { offsetInCU: 0x1197D, offset: 0x1197D, size: 0x8, addend: 0x0, symName: __ZNSt3__128__exception_guard_exceptionsINS_6vectorINS1_IdNS_9allocatorIdEEEENS2_IS4_EEE16__destroy_vectorEED1B7v160002Ev, symObjAddr: 0x6204, symBinAddr: 0x10000A704, symSize: 0x2C }
  - { offsetInCU: 0x119A6, offset: 0x119A6, size: 0x8, addend: 0x0, symName: __ZNKSt3__117__compressed_pairIPNS_6vectorIdNS_9allocatorIdEEEENS2_IS4_EEE6secondB7v160002Ev, symObjAddr: 0x6230, symBinAddr: 0x10000A730, symSize: 0x24 }
  - { offsetInCU: 0x119C9, offset: 0x119C9, size: 0x8, addend: 0x0, symName: __ZNKSt3__122__compressed_pair_elemINS_9allocatorINS_6vectorIdNS1_IdEEEEEELi1ELb1EE5__getB7v160002Ev, symObjAddr: 0x6254, symBinAddr: 0x10000A754, symSize: 0x14 }
  - { offsetInCU: 0x119ED, offset: 0x119ED, size: 0x8, addend: 0x0, symName: __ZNSt3__117__compressed_pairIPNS_6vectorIdNS_9allocatorIdEEEENS2_IS4_EEEC2B7v160002IDnS6_EEOT_OT0_, symObjAddr: 0x6268, symBinAddr: 0x10000A768, symSize: 0x44 }
  - { offsetInCU: 0x11A44, offset: 0x11A44, size: 0x8, addend: 0x0, symName: __ZNSt3__122__compressed_pair_elemIPNS_6vectorIdNS_9allocatorIdEEEELi0ELb0EEC2B7v160002IDnvEEOT_, symObjAddr: 0x62AC, symBinAddr: 0x10000A7AC, symSize: 0x1C }
  - { offsetInCU: 0x11A85, offset: 0x11A85, size: 0x8, addend: 0x0, symName: __ZNSt3__122__compressed_pair_elemINS_9allocatorINS_6vectorIdNS1_IdEEEEEELi1ELb1EEC2B7v160002IS5_vEEOT_, symObjAddr: 0x62C8, symBinAddr: 0x10000A7C8, symSize: 0x18 }
  - { offsetInCU: 0x11AC5, offset: 0x11AC5, size: 0x8, addend: 0x0, symName: __ZNSt3__128__exception_guard_exceptionsINS_6vectorINS1_IdNS_9allocatorIdEEEENS2_IS4_EEE16__destroy_vectorEEC1B7v160002ES7_, symObjAddr: 0x62E0, symBinAddr: 0x10000A7E0, symSize: 0x34 }
  - { offsetInCU: 0x11AFC, offset: 0x11AFC, size: 0x8, addend: 0x0, symName: __ZNSt3__128__exception_guard_exceptionsINS_6vectorINS1_IdNS_9allocatorIdEEEENS2_IS4_EEE16__destroy_vectorEEC2B7v160002ES7_, symObjAddr: 0x6314, symBinAddr: 0x10000A814, symSize: 0x24 }
  - { offsetInCU: 0x11B33, offset: 0x11B33, size: 0x8, addend: 0x0, symName: __ZNSt3__16vectorINS0_IdNS_9allocatorIdEEEENS1_IS3_EEE16__destroy_vectorC2ERS5_, symObjAddr: 0x6338, symBinAddr: 0x10000A838, symSize: 0x20 }
  - { offsetInCU: 0x11B6A, offset: 0x11B6A, size: 0x8, addend: 0x0, symName: __ZNKSt3__16vectorINS0_IdNS_9allocatorIdEEEENS1_IS3_EEE8max_sizeEv, symObjAddr: 0x6358, symBinAddr: 0x10000A858, symSize: 0x74 }
  - { offsetInCU: 0x11B91, offset: 0x11B91, size: 0x8, addend: 0x0, symName: __ZNKSt3__16vectorINS0_IdNS_9allocatorIdEEEENS1_IS3_EEE20__throw_length_errorB7v160002Ev, symObjAddr: 0x63CC, symBinAddr: 0x10000A8CC, symSize: 0x1C }
  - { offsetInCU: 0x11BB5, offset: 0x11BB5, size: 0x8, addend: 0x0, symName: __ZNSt3__16vectorINS0_IdNS_9allocatorIdEEEENS1_IS3_EEE7__allocB7v160002Ev, symObjAddr: 0x6428, symBinAddr: 0x10000A928, symSize: 0x28 }
  - { offsetInCU: 0x11BD9, offset: 0x11BD9, size: 0x8, addend: 0x0, symName: __ZNSt3__16vectorINS0_IdNS_9allocatorIdEEEENS1_IS3_EEE9__end_capB7v160002Ev, symObjAddr: 0x6450, symBinAddr: 0x10000A950, symSize: 0x28 }
  - { offsetInCU: 0x11BFD, offset: 0x11BFD, size: 0x8, addend: 0x0, symName: __ZNKSt3__16vectorINS0_IdNS_9allocatorIdEEEENS1_IS3_EEE14__annotate_newB7v160002Em, symObjAddr: 0x6478, symBinAddr: 0x10000A978, symSize: 0xC8 }
  - { offsetInCU: 0x11C30, offset: 0x11C30, size: 0x8, addend: 0x0, symName: __ZNSt3__116allocator_traitsINS_9allocatorINS_6vectorIdNS1_IdEEEEEEE8max_sizeB7v160002IS5_vEEmRKS5_, symObjAddr: 0x6540, symBinAddr: 0x10000AA40, symSize: 0x24 }
  - { offsetInCU: 0x11C5D, offset: 0x11C5D, size: 0x8, addend: 0x0, symName: __ZNKSt3__19allocatorINS_6vectorIdNS0_IdEEEEE8max_sizeB7v160002Ev, symObjAddr: 0x6564, symBinAddr: 0x10000AA64, symSize: 0x18 }
  - { offsetInCU: 0x11C82, offset: 0x11C82, size: 0x8, addend: 0x0, symName: __ZNSt3__19allocatorINS_6vectorIdNS0_IdEEEEE8allocateB7v160002Em, symObjAddr: 0x657C, symBinAddr: 0x10000AA7C, symSize: 0x8C }
  - { offsetInCU: 0x11CB4, offset: 0x11CB4, size: 0x8, addend: 0x0, symName: __ZNSt3__117__compressed_pairIPNS_6vectorIdNS_9allocatorIdEEEENS2_IS4_EEE6secondB7v160002Ev, symObjAddr: 0x6608, symBinAddr: 0x10000AB08, symSize: 0x24 }
  - { offsetInCU: 0x11CD7, offset: 0x11CD7, size: 0x8, addend: 0x0, symName: __ZNSt3__122__compressed_pair_elemINS_9allocatorINS_6vectorIdNS1_IdEEEEEELi1ELb1EE5__getB7v160002Ev, symObjAddr: 0x662C, symBinAddr: 0x10000AB2C, symSize: 0x14 }
  - { offsetInCU: 0x11CFC, offset: 0x11CFC, size: 0x8, addend: 0x0, symName: __ZNSt3__117__compressed_pairIPNS_6vectorIdNS_9allocatorIdEEEENS2_IS4_EEE5firstB7v160002Ev, symObjAddr: 0x6640, symBinAddr: 0x10000AB40, symSize: 0x24 }
  - { offsetInCU: 0x11D1F, offset: 0x11D1F, size: 0x8, addend: 0x0, symName: __ZNSt3__122__compressed_pair_elemIPNS_6vectorIdNS_9allocatorIdEEEELi0ELb0EE5__getB7v160002Ev, symObjAddr: 0x6664, symBinAddr: 0x10000AB64, symSize: 0x14 }
  - { offsetInCU: 0x11D43, offset: 0x11D43, size: 0x8, addend: 0x0, symName: __ZNKSt3__16vectorINS0_IdNS_9allocatorIdEEEENS1_IS3_EEE31__annotate_contiguous_containerB7v160002EPKvS7_S7_S7_, symObjAddr: 0x6678, symBinAddr: 0x10000AB78, symSize: 0x20 }
  - { offsetInCU: 0x11D94, offset: 0x11D94, size: 0x8, addend: 0x0, symName: __ZNKSt3__16vectorINS0_IdNS_9allocatorIdEEEENS1_IS3_EEE4dataB7v160002Ev, symObjAddr: 0x6698, symBinAddr: 0x10000AB98, symSize: 0x28 }
  - { offsetInCU: 0x11DB8, offset: 0x11DB8, size: 0x8, addend: 0x0, symName: __ZNKSt3__16vectorINS0_IdNS_9allocatorIdEEEENS1_IS3_EEE8capacityB7v160002Ev, symObjAddr: 0x66C0, symBinAddr: 0x10000ABC0, symSize: 0x40 }
  - { offsetInCU: 0x11DDC, offset: 0x11DDC, size: 0x8, addend: 0x0, symName: __ZNKSt3__16vectorINS0_IdNS_9allocatorIdEEEENS1_IS3_EEE9__end_capB7v160002Ev, symObjAddr: 0x6714, symBinAddr: 0x10000AC14, symSize: 0x28 }
  - { offsetInCU: 0x11E00, offset: 0x11E00, size: 0x8, addend: 0x0, symName: __ZNKSt3__117__compressed_pairIPNS_6vectorIdNS_9allocatorIdEEEENS2_IS4_EEE5firstB7v160002Ev, symObjAddr: 0x673C, symBinAddr: 0x10000AC3C, symSize: 0x24 }
  - { offsetInCU: 0x11E23, offset: 0x11E23, size: 0x8, addend: 0x0, symName: __ZNKSt3__122__compressed_pair_elemIPNS_6vectorIdNS_9allocatorIdEEEELi0ELb0EE5__getB7v160002Ev, symObjAddr: 0x6760, symBinAddr: 0x10000AC60, symSize: 0x14 }
  - { offsetInCU: 0x11E60, offset: 0x11E60, size: 0x8, addend: 0x0, symName: __ZNSt3__16vectorINS0_IdNS_9allocatorIdEEEENS1_IS3_EEE21_ConstructTransactionC1B7v160002ERS5_m, symObjAddr: 0x6774, symBinAddr: 0x10000AC74, symSize: 0x3C }
  - { offsetInCU: 0x11EA6, offset: 0x11EA6, size: 0x8, addend: 0x0, symName: __ZNSt3__16vectorINS0_IdNS_9allocatorIdEEEENS1_IS3_EEE21_ConstructTransactionD1B7v160002Ev, symObjAddr: 0x68AC, symBinAddr: 0x10000ADAC, symSize: 0x2C }
  - { offsetInCU: 0x11ECF, offset: 0x11ECF, size: 0x8, addend: 0x0, symName: __ZNSt3__16vectorINS0_IdNS_9allocatorIdEEEENS1_IS3_EEE21_ConstructTransactionC2B7v160002ERS5_m, symObjAddr: 0x68D8, symBinAddr: 0x10000ADD8, symSize: 0x4C }
  - { offsetInCU: 0x11F15, offset: 0x11F15, size: 0x8, addend: 0x0, symName: __ZNSt3__129_AllocatorDestroyRangeReverseINS_9allocatorINS_6vectorIdNS1_IdEEEEEEPS4_EC1B7v160002ERS5_RS6_S9_, symObjAddr: 0x6970, symBinAddr: 0x10000AE70, symSize: 0x44 }
  - { offsetInCU: 0x11F6B, offset: 0x11F6B, size: 0x8, addend: 0x0, symName: __ZNSt3__116allocator_traitsINS_9allocatorINS_6vectorIdNS1_IdEEEEEEE9constructB7v160002IS4_JRS4_EvEEvRS5_PT_DpOT0_, symObjAddr: 0x69B4, symBinAddr: 0x10000AEB4, symSize: 0x34 }
  - { offsetInCU: 0x11FC1, offset: 0x11FC1, size: 0x8, addend: 0x0, symName: __ZNSt3__128__exception_guard_exceptionsINS_29_AllocatorDestroyRangeReverseINS_9allocatorINS_6vectorIdNS2_IdEEEEEEPS5_EEE10__completeB7v160002Ev, symObjAddr: 0x69E8, symBinAddr: 0x10000AEE8, symSize: 0x1C }
  - { offsetInCU: 0x11FE5, offset: 0x11FE5, size: 0x8, addend: 0x0, symName: __ZNSt3__128__exception_guard_exceptionsINS_29_AllocatorDestroyRangeReverseINS_9allocatorINS_6vectorIdNS2_IdEEEEEEPS5_EEED1B7v160002Ev, symObjAddr: 0x6A04, symBinAddr: 0x10000AF04, symSize: 0x2C }
  - { offsetInCU: 0x1200D, offset: 0x1200D, size: 0x8, addend: 0x0, symName: __ZNSt3__128__exception_guard_exceptionsINS_29_AllocatorDestroyRangeReverseINS_9allocatorINS_6vectorIdNS2_IdEEEEEEPS5_EEEC1B7v160002ES8_, symObjAddr: 0x6A30, symBinAddr: 0x10000AF30, symSize: 0x34 }
  - { offsetInCU: 0x12045, offset: 0x12045, size: 0x8, addend: 0x0, symName: __ZNSt3__128__exception_guard_exceptionsINS_29_AllocatorDestroyRangeReverseINS_9allocatorINS_6vectorIdNS2_IdEEEEEEPS5_EEEC2B7v160002ES8_, symObjAddr: 0x6A64, symBinAddr: 0x10000AF64, symSize: 0x30 }
  - { offsetInCU: 0x1207D, offset: 0x1207D, size: 0x8, addend: 0x0, symName: __ZNSt3__129_AllocatorDestroyRangeReverseINS_9allocatorINS_6vectorIdNS1_IdEEEEEEPS4_EC2B7v160002ERS5_RS6_S9_, symObjAddr: 0x6A94, symBinAddr: 0x10000AF94, symSize: 0x38 }
  - { offsetInCU: 0x120D3, offset: 0x120D3, size: 0x8, addend: 0x0, symName: __ZNSt3__19allocatorINS_6vectorIdNS0_IdEEEEE9constructB7v160002IS3_JRS3_EEEvPT_DpOT0_, symObjAddr: 0x6ACC, symBinAddr: 0x10000AFCC, symSize: 0x30 }
  - { offsetInCU: 0x12126, offset: 0x12126, size: 0x8, addend: 0x0, symName: __ZNSt3__16vectorIdNS_9allocatorIdEEEC1ERKS3_, symObjAddr: 0x6AFC, symBinAddr: 0x10000AFFC, symSize: 0x34 }
  - { offsetInCU: 0x1215F, offset: 0x1215F, size: 0x8, addend: 0x0, symName: __ZNSt3__16vectorIdNS_9allocatorIdEEEC2ERKS3_, symObjAddr: 0x6B30, symBinAddr: 0x10000B030, symSize: 0x11C }
  - { offsetInCU: 0x121C7, offset: 0x121C7, size: 0x8, addend: 0x0, symName: __ZNSt3__116allocator_traitsINS_9allocatorIdEEE37select_on_container_copy_constructionB7v160002IS2_vvEES2_RKS2_, symObjAddr: 0x6C4C, symBinAddr: 0x10000B14C, symSize: 0x10 }
  - { offsetInCU: 0x121F6, offset: 0x121F6, size: 0x8, addend: 0x0, symName: __ZNKSt3__16vectorIdNS_9allocatorIdEEE7__allocB7v160002Ev, symObjAddr: 0x6C5C, symBinAddr: 0x10000B15C, symSize: 0x28 }
  - { offsetInCU: 0x1221E, offset: 0x1221E, size: 0x8, addend: 0x0, symName: __ZNSt3__117__compressed_pairIPdNS_9allocatorIdEEEC1B7v160002IDnS3_EEOT_OT0_, symObjAddr: 0x6C84, symBinAddr: 0x10000B184, symSize: 0x3C }
  - { offsetInCU: 0x12274, offset: 0x12274, size: 0x8, addend: 0x0, symName: __ZNSt3__16vectorIdNS_9allocatorIdEEE16__destroy_vectorC1ERS3_, symObjAddr: 0x6D00, symBinAddr: 0x10000B200, symSize: 0x34 }
  - { offsetInCU: 0x122AC, offset: 0x122AC, size: 0x8, addend: 0x0, symName: __ZNSt3__16vectorIdNS_9allocatorIdEEE11__vallocateB7v160002Em, symObjAddr: 0x6D44, symBinAddr: 0x10000B244, symSize: 0xAC }
  - { offsetInCU: 0x122ED, offset: 0x122ED, size: 0x8, addend: 0x0, symName: __ZNSt3__16vectorIdNS_9allocatorIdEEE18__construct_at_endIPdLi0EEEvT_S6_m, symObjAddr: 0x6DF0, symBinAddr: 0x10000B2F0, symSize: 0x94 }
  - { offsetInCU: 0x1235E, offset: 0x1235E, size: 0x8, addend: 0x0, symName: __ZNSt3__128__exception_guard_exceptionsINS_6vectorIdNS_9allocatorIdEEE16__destroy_vectorEE10__completeB7v160002Ev, symObjAddr: 0x6E84, symBinAddr: 0x10000B384, symSize: 0x1C }
  - { offsetInCU: 0x12382, offset: 0x12382, size: 0x8, addend: 0x0, symName: __ZNSt3__128__exception_guard_exceptionsINS_6vectorIdNS_9allocatorIdEEE16__destroy_vectorEED1B7v160002Ev, symObjAddr: 0x6EA0, symBinAddr: 0x10000B3A0, symSize: 0x2C }
  - { offsetInCU: 0x123AB, offset: 0x123AB, size: 0x8, addend: 0x0, symName: __ZNKSt3__117__compressed_pairIPdNS_9allocatorIdEEE6secondB7v160002Ev, symObjAddr: 0x6ECC, symBinAddr: 0x10000B3CC, symSize: 0x24 }
  - { offsetInCU: 0x123CE, offset: 0x123CE, size: 0x8, addend: 0x0, symName: __ZNKSt3__122__compressed_pair_elemINS_9allocatorIdEELi1ELb1EE5__getB7v160002Ev, symObjAddr: 0x6EF0, symBinAddr: 0x10000B3F0, symSize: 0x14 }
  - { offsetInCU: 0x123F2, offset: 0x123F2, size: 0x8, addend: 0x0, symName: __ZNSt3__117__compressed_pairIPdNS_9allocatorIdEEEC2B7v160002IDnS3_EEOT_OT0_, symObjAddr: 0x6F04, symBinAddr: 0x10000B404, symSize: 0x44 }
  - { offsetInCU: 0x12449, offset: 0x12449, size: 0x8, addend: 0x0, symName: __ZNSt3__122__compressed_pair_elemIPdLi0ELb0EEC2B7v160002IDnvEEOT_, symObjAddr: 0x6F48, symBinAddr: 0x10000B448, symSize: 0x1C }
  - { offsetInCU: 0x1248A, offset: 0x1248A, size: 0x8, addend: 0x0, symName: __ZNSt3__122__compressed_pair_elemINS_9allocatorIdEELi1ELb1EEC2B7v160002IS2_vEEOT_, symObjAddr: 0x6F64, symBinAddr: 0x10000B464, symSize: 0x18 }
  - { offsetInCU: 0x124CA, offset: 0x124CA, size: 0x8, addend: 0x0, symName: __ZNSt3__128__exception_guard_exceptionsINS_6vectorIdNS_9allocatorIdEEE16__destroy_vectorEEC1B7v160002ES5_, symObjAddr: 0x6F7C, symBinAddr: 0x10000B47C, symSize: 0x34 }
  - { offsetInCU: 0x12501, offset: 0x12501, size: 0x8, addend: 0x0, symName: __ZNSt3__128__exception_guard_exceptionsINS_6vectorIdNS_9allocatorIdEEE16__destroy_vectorEEC2B7v160002ES5_, symObjAddr: 0x6FB0, symBinAddr: 0x10000B4B0, symSize: 0x24 }
  - { offsetInCU: 0x12538, offset: 0x12538, size: 0x8, addend: 0x0, symName: __ZNSt3__16vectorIdNS_9allocatorIdEEE16__destroy_vectorC2ERS3_, symObjAddr: 0x6FD4, symBinAddr: 0x10000B4D4, symSize: 0x20 }
  - { offsetInCU: 0x1256F, offset: 0x1256F, size: 0x8, addend: 0x0, symName: __ZNKSt3__16vectorIdNS_9allocatorIdEEE8max_sizeEv, symObjAddr: 0x6FF4, symBinAddr: 0x10000B4F4, symSize: 0x74 }
  - { offsetInCU: 0x12596, offset: 0x12596, size: 0x8, addend: 0x0, symName: __ZNKSt3__16vectorIdNS_9allocatorIdEEE20__throw_length_errorB7v160002Ev, symObjAddr: 0x7068, symBinAddr: 0x10000B568, symSize: 0x1C }
  - { offsetInCU: 0x125BA, offset: 0x125BA, size: 0x8, addend: 0x0, symName: __ZNSt3__16vectorIdNS_9allocatorIdEEE7__allocB7v160002Ev, symObjAddr: 0x70C4, symBinAddr: 0x10000B5C4, symSize: 0x28 }
  - { offsetInCU: 0x125DE, offset: 0x125DE, size: 0x8, addend: 0x0, symName: __ZNSt3__16vectorIdNS_9allocatorIdEEE9__end_capB7v160002Ev, symObjAddr: 0x70EC, symBinAddr: 0x10000B5EC, symSize: 0x28 }
  - { offsetInCU: 0x12602, offset: 0x12602, size: 0x8, addend: 0x0, symName: __ZNKSt3__16vectorIdNS_9allocatorIdEEE14__annotate_newB7v160002Em, symObjAddr: 0x7114, symBinAddr: 0x10000B614, symSize: 0xAC }
  - { offsetInCU: 0x12635, offset: 0x12635, size: 0x8, addend: 0x0, symName: __ZNSt3__116allocator_traitsINS_9allocatorIdEEE8max_sizeB7v160002IS2_vEEmRKS2_, symObjAddr: 0x71C0, symBinAddr: 0x10000B6C0, symSize: 0x24 }
  - { offsetInCU: 0x12662, offset: 0x12662, size: 0x8, addend: 0x0, symName: __ZNKSt3__19allocatorIdE8max_sizeB7v160002Ev, symObjAddr: 0x71E4, symBinAddr: 0x10000B6E4, symSize: 0x14 }
  - { offsetInCU: 0x12687, offset: 0x12687, size: 0x8, addend: 0x0, symName: __ZNSt3__19allocatorIdE8allocateB7v160002Em, symObjAddr: 0x71F8, symBinAddr: 0x10000B6F8, symSize: 0x84 }
  - { offsetInCU: 0x126B9, offset: 0x126B9, size: 0x8, addend: 0x0, symName: __ZNSt3__117__compressed_pairIPdNS_9allocatorIdEEE6secondB7v160002Ev, symObjAddr: 0x727C, symBinAddr: 0x10000B77C, symSize: 0x24 }
  - { offsetInCU: 0x126DC, offset: 0x126DC, size: 0x8, addend: 0x0, symName: __ZNSt3__122__compressed_pair_elemINS_9allocatorIdEELi1ELb1EE5__getB7v160002Ev, symObjAddr: 0x72A0, symBinAddr: 0x10000B7A0, symSize: 0x14 }
  - { offsetInCU: 0x12701, offset: 0x12701, size: 0x8, addend: 0x0, symName: __ZNSt3__117__compressed_pairIPdNS_9allocatorIdEEE5firstB7v160002Ev, symObjAddr: 0x72B4, symBinAddr: 0x10000B7B4, symSize: 0x24 }
  - { offsetInCU: 0x12724, offset: 0x12724, size: 0x8, addend: 0x0, symName: __ZNSt3__122__compressed_pair_elemIPdLi0ELb0EE5__getB7v160002Ev, symObjAddr: 0x72D8, symBinAddr: 0x10000B7D8, symSize: 0x14 }
  - { offsetInCU: 0x12748, offset: 0x12748, size: 0x8, addend: 0x0, symName: __ZNKSt3__16vectorIdNS_9allocatorIdEEE31__annotate_contiguous_containerB7v160002EPKvS5_S5_S5_, symObjAddr: 0x72EC, symBinAddr: 0x10000B7EC, symSize: 0x20 }
  - { offsetInCU: 0x12799, offset: 0x12799, size: 0x8, addend: 0x0, symName: __ZNKSt3__16vectorIdNS_9allocatorIdEEE4dataB7v160002Ev, symObjAddr: 0x730C, symBinAddr: 0x10000B80C, symSize: 0x28 }
  - { offsetInCU: 0x127BD, offset: 0x127BD, size: 0x8, addend: 0x0, symName: __ZNKSt3__16vectorIdNS_9allocatorIdEEE8capacityB7v160002Ev, symObjAddr: 0x7334, symBinAddr: 0x10000B834, symSize: 0x40 }
  - { offsetInCU: 0x127E1, offset: 0x127E1, size: 0x8, addend: 0x0, symName: __ZNKSt3__16vectorIdNS_9allocatorIdEEE9__end_capB7v160002Ev, symObjAddr: 0x7388, symBinAddr: 0x10000B888, symSize: 0x28 }
  - { offsetInCU: 0x12805, offset: 0x12805, size: 0x8, addend: 0x0, symName: __ZNKSt3__117__compressed_pairIPdNS_9allocatorIdEEE5firstB7v160002Ev, symObjAddr: 0x73B0, symBinAddr: 0x10000B8B0, symSize: 0x24 }
  - { offsetInCU: 0x12828, offset: 0x12828, size: 0x8, addend: 0x0, symName: __ZNKSt3__122__compressed_pair_elemIPdLi0ELb0EE5__getB7v160002Ev, symObjAddr: 0x73D4, symBinAddr: 0x10000B8D4, symSize: 0x14 }
  - { offsetInCU: 0x12865, offset: 0x12865, size: 0x8, addend: 0x0, symName: __ZNSt3__16vectorIdNS_9allocatorIdEEE21_ConstructTransactionC1B7v160002ERS3_m, symObjAddr: 0x73E8, symBinAddr: 0x10000B8E8, symSize: 0x3C }
  - { offsetInCU: 0x128AB, offset: 0x128AB, size: 0x8, addend: 0x0, symName: __ZNSt3__16vectorIdNS_9allocatorIdEEE21_ConstructTransactionD1B7v160002Ev, symObjAddr: 0x7520, symBinAddr: 0x10000BA20, symSize: 0x2C }
  - { offsetInCU: 0x128D4, offset: 0x128D4, size: 0x8, addend: 0x0, symName: __ZNSt3__16vectorIdNS_9allocatorIdEEE21_ConstructTransactionC2B7v160002ERS3_m, symObjAddr: 0x754C, symBinAddr: 0x10000BA4C, symSize: 0x44 }
  - { offsetInCU: 0x1291A, offset: 0x1291A, size: 0x8, addend: 0x0, symName: __ZNSt3__129_AllocatorDestroyRangeReverseINS_9allocatorIdEEPdEC1B7v160002ERS2_RS3_S6_, symObjAddr: 0x75DC, symBinAddr: 0x10000BADC, symSize: 0x44 }
  - { offsetInCU: 0x12970, offset: 0x12970, size: 0x8, addend: 0x0, symName: __ZNSt3__116allocator_traitsINS_9allocatorIdEEE9constructB7v160002IdJRdEvEEvRS2_PT_DpOT0_, symObjAddr: 0x7620, symBinAddr: 0x10000BB20, symSize: 0x34 }
  - { offsetInCU: 0x129C6, offset: 0x129C6, size: 0x8, addend: 0x0, symName: __ZNSt3__128__exception_guard_exceptionsINS_29_AllocatorDestroyRangeReverseINS_9allocatorIdEEPdEEE10__completeB7v160002Ev, symObjAddr: 0x7654, symBinAddr: 0x10000BB54, symSize: 0x1C }
  - { offsetInCU: 0x129EA, offset: 0x129EA, size: 0x8, addend: 0x0, symName: __ZNSt3__128__exception_guard_exceptionsINS_29_AllocatorDestroyRangeReverseINS_9allocatorIdEEPdEEED1B7v160002Ev, symObjAddr: 0x7670, symBinAddr: 0x10000BB70, symSize: 0x2C }
  - { offsetInCU: 0x12A12, offset: 0x12A12, size: 0x8, addend: 0x0, symName: __ZNSt3__128__exception_guard_exceptionsINS_29_AllocatorDestroyRangeReverseINS_9allocatorIdEEPdEEEC1B7v160002ES5_, symObjAddr: 0x769C, symBinAddr: 0x10000BB9C, symSize: 0x34 }
  - { offsetInCU: 0x12A4A, offset: 0x12A4A, size: 0x8, addend: 0x0, symName: __ZNSt3__128__exception_guard_exceptionsINS_29_AllocatorDestroyRangeReverseINS_9allocatorIdEEPdEEEC2B7v160002ES5_, symObjAddr: 0x76D0, symBinAddr: 0x10000BBD0, symSize: 0x30 }
  - { offsetInCU: 0x12A82, offset: 0x12A82, size: 0x8, addend: 0x0, symName: __ZNSt3__129_AllocatorDestroyRangeReverseINS_9allocatorIdEEPdEC2B7v160002ERS2_RS3_S6_, symObjAddr: 0x7700, symBinAddr: 0x10000BC00, symSize: 0x38 }
  - { offsetInCU: 0x12AD7, offset: 0x12AD7, size: 0x8, addend: 0x0, symName: __ZNSt3__19allocatorIdE9constructB7v160002IdJRdEEEvPT_DpOT0_, symObjAddr: 0x7738, symBinAddr: 0x10000BC38, symSize: 0x28 }
  - { offsetInCU: 0x12B2B, offset: 0x12B2B, size: 0x8, addend: 0x0, symName: __ZNSt3__128__exception_guard_exceptionsINS_29_AllocatorDestroyRangeReverseINS_9allocatorIdEEPdEEED2B7v160002Ev, symObjAddr: 0x7760, symBinAddr: 0x10000BC60, symSize: 0x48 }
  - { offsetInCU: 0x12B54, offset: 0x12B54, size: 0x8, addend: 0x0, symName: __ZNKSt3__129_AllocatorDestroyRangeReverseINS_9allocatorIdEEPdEclB7v160002Ev, symObjAddr: 0x77A8, symBinAddr: 0x10000BCA8, symSize: 0x68 }
  - { offsetInCU: 0x12B77, offset: 0x12B77, size: 0x8, addend: 0x0, symName: __ZNSt3__116reverse_iteratorIPdEC1B7v160002ES1_, symObjAddr: 0x7880, symBinAddr: 0x10000BD80, symSize: 0x34 }
  - { offsetInCU: 0x12BAE, offset: 0x12BAE, size: 0x8, addend: 0x0, symName: __ZNSt3__116allocator_traitsINS_9allocatorIdEEE7destroyB7v160002IdvEEvRS2_PT_, symObjAddr: 0x78FC, symBinAddr: 0x10000BDFC, symSize: 0x2C }
  - { offsetInCU: 0x12BEA, offset: 0x12BEA, size: 0x8, addend: 0x0, symName: __ZNSt3__116reverse_iteratorIPdEppB7v160002Ev, symObjAddr: 0x794C, symBinAddr: 0x10000BE4C, symSize: 0x20 }
  - { offsetInCU: 0x12C0E, offset: 0x12C0E, size: 0x8, addend: 0x0, symName: __ZNKSt3__116reverse_iteratorIPdE4baseB7v160002Ev, symObjAddr: 0x796C, symBinAddr: 0x10000BE6C, symSize: 0x18 }
  - { offsetInCU: 0x12C32, offset: 0x12C32, size: 0x8, addend: 0x0, symName: __ZNSt3__19allocatorIdE7destroyB7v160002EPd, symObjAddr: 0x7984, symBinAddr: 0x10000BE84, symSize: 0x14 }
  - { offsetInCU: 0x12C6A, offset: 0x12C6A, size: 0x8, addend: 0x0, symName: __ZNSt3__119__to_address_helperINS_16reverse_iteratorIPdEEvE6__callB7v160002ERKS3_, symObjAddr: 0x7998, symBinAddr: 0x10000BE98, symSize: 0x4C }
  - { offsetInCU: 0x12C8D, offset: 0x12C8D, size: 0x8, addend: 0x0, symName: __ZNKSt3__116reverse_iteratorIPdEptB7v160002Ev, symObjAddr: 0x79E4, symBinAddr: 0x10000BEE4, symSize: 0x24 }
  - { offsetInCU: 0x12CB0, offset: 0x12CB0, size: 0x8, addend: 0x0, symName: __ZNKSt3__116reverse_iteratorIPdEdeB7v160002Ev, symObjAddr: 0x7A08, symBinAddr: 0x10000BF08, symSize: 0x28 }
  - { offsetInCU: 0x12CE3, offset: 0x12CE3, size: 0x8, addend: 0x0, symName: __ZNSt3__116reverse_iteratorIPdEC2B7v160002ES1_, symObjAddr: 0x7A30, symBinAddr: 0x10000BF30, symSize: 0x28 }
  - { offsetInCU: 0x12D1A, offset: 0x12D1A, size: 0x8, addend: 0x0, symName: __ZNSt3__16vectorIdNS_9allocatorIdEEE21_ConstructTransactionD2B7v160002Ev, symObjAddr: 0x7A58, symBinAddr: 0x10000BF58, symSize: 0x20 }
  - { offsetInCU: 0x12D42, offset: 0x12D42, size: 0x8, addend: 0x0, symName: __ZNSt3__128__exception_guard_exceptionsINS_6vectorIdNS_9allocatorIdEEE16__destroy_vectorEED2B7v160002Ev, symObjAddr: 0x7A78, symBinAddr: 0x10000BF78, symSize: 0x48 }
  - { offsetInCU: 0x12D6B, offset: 0x12D6B, size: 0x8, addend: 0x0, symName: __ZNSt3__16vectorIdNS_9allocatorIdEEE16__destroy_vectorclB7v160002Ev, symObjAddr: 0x7AC0, symBinAddr: 0x10000BFC0, symSize: 0x9C }
  - { offsetInCU: 0x12D8F, offset: 0x12D8F, size: 0x8, addend: 0x0, symName: __ZNKSt3__16vectorIdNS_9allocatorIdEEE17__annotate_deleteB7v160002Ev, symObjAddr: 0x7B5C, symBinAddr: 0x10000C05C, symSize: 0xB8 }
  - { offsetInCU: 0x12DB3, offset: 0x12DB3, size: 0x8, addend: 0x0, symName: __ZNSt3__16vectorIdNS_9allocatorIdEEE7__clearB7v160002Ev, symObjAddr: 0x7C24, symBinAddr: 0x10000C124, symSize: 0x28 }
  - { offsetInCU: 0x12DD7, offset: 0x12DD7, size: 0x8, addend: 0x0, symName: __ZNSt3__116allocator_traitsINS_9allocatorIdEEE10deallocateB7v160002ERS2_Pdm, symObjAddr: 0x7C4C, symBinAddr: 0x10000C14C, symSize: 0x34 }
  - { offsetInCU: 0x12E19, offset: 0x12E19, size: 0x8, addend: 0x0, symName: __ZNSt3__16vectorIdNS_9allocatorIdEEE22__base_destruct_at_endB7v160002EPd, symObjAddr: 0x7C80, symBinAddr: 0x10000C180, symSize: 0xA0 }
  - { offsetInCU: 0x12E5B, offset: 0x12E5B, size: 0x8, addend: 0x0, symName: __ZNSt3__19allocatorIdE10deallocateB7v160002EPdm, symObjAddr: 0x7D20, symBinAddr: 0x10000C220, symSize: 0x70 }
  - { offsetInCU: 0x12E9A, offset: 0x12E9A, size: 0x8, addend: 0x0, symName: __ZNSt3__128__exception_guard_exceptionsINS_29_AllocatorDestroyRangeReverseINS_9allocatorINS_6vectorIdNS2_IdEEEEEEPS5_EEED2B7v160002Ev, symObjAddr: 0x7D90, symBinAddr: 0x10000C290, symSize: 0x48 }
  - { offsetInCU: 0x12EC3, offset: 0x12EC3, size: 0x8, addend: 0x0, symName: __ZNKSt3__129_AllocatorDestroyRangeReverseINS_9allocatorINS_6vectorIdNS1_IdEEEEEEPS4_EclB7v160002Ev, symObjAddr: 0x7DD8, symBinAddr: 0x10000C2D8, symSize: 0x68 }
  - { offsetInCU: 0x12EE6, offset: 0x12EE6, size: 0x8, addend: 0x0, symName: __ZNSt3__116reverse_iteratorIPNS_6vectorIdNS_9allocatorIdEEEEEC1B7v160002ES5_, symObjAddr: 0x7EB0, symBinAddr: 0x10000C3B0, symSize: 0x34 }
  - { offsetInCU: 0x12F1D, offset: 0x12F1D, size: 0x8, addend: 0x0, symName: __ZNSt3__116allocator_traitsINS_9allocatorINS_6vectorIdNS1_IdEEEEEEE7destroyB7v160002IS4_vEEvRS5_PT_, symObjAddr: 0x7F2C, symBinAddr: 0x10000C42C, symSize: 0x2C }
  - { offsetInCU: 0x12F59, offset: 0x12F59, size: 0x8, addend: 0x0, symName: __ZNSt3__116reverse_iteratorIPNS_6vectorIdNS_9allocatorIdEEEEEppB7v160002Ev, symObjAddr: 0x7F7C, symBinAddr: 0x10000C47C, symSize: 0x20 }
  - { offsetInCU: 0x12F7D, offset: 0x12F7D, size: 0x8, addend: 0x0, symName: __ZNKSt3__116reverse_iteratorIPNS_6vectorIdNS_9allocatorIdEEEEE4baseB7v160002Ev, symObjAddr: 0x7F9C, symBinAddr: 0x10000C49C, symSize: 0x18 }
  - { offsetInCU: 0x12FA2, offset: 0x12FA2, size: 0x8, addend: 0x0, symName: __ZNSt3__19allocatorINS_6vectorIdNS0_IdEEEEE7destroyB7v160002EPS3_, symObjAddr: 0x7FB4, symBinAddr: 0x10000C4B4, symSize: 0x28 }
  - { offsetInCU: 0x12FD9, offset: 0x12FD9, size: 0x8, addend: 0x0, symName: __ZNSt3__119__to_address_helperINS_16reverse_iteratorIPNS_6vectorIdNS_9allocatorIdEEEEEEvE6__callB7v160002ERKS7_, symObjAddr: 0x7FDC, symBinAddr: 0x10000C4DC, symSize: 0x4C }
  - { offsetInCU: 0x12FFC, offset: 0x12FFC, size: 0x8, addend: 0x0, symName: __ZNKSt3__116reverse_iteratorIPNS_6vectorIdNS_9allocatorIdEEEEEptB7v160002Ev, symObjAddr: 0x8028, symBinAddr: 0x10000C528, symSize: 0x24 }
  - { offsetInCU: 0x1301F, offset: 0x1301F, size: 0x8, addend: 0x0, symName: __ZNKSt3__116reverse_iteratorIPNS_6vectorIdNS_9allocatorIdEEEEEdeB7v160002Ev, symObjAddr: 0x804C, symBinAddr: 0x10000C54C, symSize: 0x28 }
  - { offsetInCU: 0x13052, offset: 0x13052, size: 0x8, addend: 0x0, symName: __ZNSt3__116reverse_iteratorIPNS_6vectorIdNS_9allocatorIdEEEEEC2B7v160002ES5_, symObjAddr: 0x8074, symBinAddr: 0x10000C574, symSize: 0x28 }
  - { offsetInCU: 0x13089, offset: 0x13089, size: 0x8, addend: 0x0, symName: __ZNSt3__16vectorINS0_IdNS_9allocatorIdEEEENS1_IS3_EEE21_ConstructTransactionD2B7v160002Ev, symObjAddr: 0x809C, symBinAddr: 0x10000C59C, symSize: 0x20 }
  - { offsetInCU: 0x130B1, offset: 0x130B1, size: 0x8, addend: 0x0, symName: __ZNSt3__128__exception_guard_exceptionsINS_6vectorINS1_IdNS_9allocatorIdEEEENS2_IS4_EEE16__destroy_vectorEED2B7v160002Ev, symObjAddr: 0x80BC, symBinAddr: 0x10000C5BC, symSize: 0x48 }
  - { offsetInCU: 0x130DA, offset: 0x130DA, size: 0x8, addend: 0x0, symName: __ZNSt3__16vectorINS0_IdNS_9allocatorIdEEEENS1_IS3_EEE16__destroy_vectorclB7v160002Ev, symObjAddr: 0x8104, symBinAddr: 0x10000C604, symSize: 0x9C }
  - { offsetInCU: 0x130FE, offset: 0x130FE, size: 0x8, addend: 0x0, symName: __ZNKSt3__16vectorINS0_IdNS_9allocatorIdEEEENS1_IS3_EEE17__annotate_deleteB7v160002Ev, symObjAddr: 0x81A0, symBinAddr: 0x10000C6A0, symSize: 0xD4 }
  - { offsetInCU: 0x13122, offset: 0x13122, size: 0x8, addend: 0x0, symName: __ZNSt3__16vectorINS0_IdNS_9allocatorIdEEEENS1_IS3_EEE7__clearB7v160002Ev, symObjAddr: 0x8284, symBinAddr: 0x10000C784, symSize: 0x28 }
  - { offsetInCU: 0x13146, offset: 0x13146, size: 0x8, addend: 0x0, symName: __ZNSt3__116allocator_traitsINS_9allocatorINS_6vectorIdNS1_IdEEEEEEE10deallocateB7v160002ERS5_PS4_m, symObjAddr: 0x82AC, symBinAddr: 0x10000C7AC, symSize: 0x34 }
  - { offsetInCU: 0x13188, offset: 0x13188, size: 0x8, addend: 0x0, symName: __ZNSt3__16vectorINS0_IdNS_9allocatorIdEEEENS1_IS3_EEE22__base_destruct_at_endB7v160002EPS3_, symObjAddr: 0x82E0, symBinAddr: 0x10000C7E0, symSize: 0xA0 }
  - { offsetInCU: 0x131CA, offset: 0x131CA, size: 0x8, addend: 0x0, symName: __ZNSt3__19allocatorINS_6vectorIdNS0_IdEEEEE10deallocateB7v160002EPS3_m, symObjAddr: 0x8380, symBinAddr: 0x10000C880, symSize: 0x74 }
  - { offsetInCU: 0x13209, offset: 0x13209, size: 0x8, addend: 0x0, symName: __ZNSt3__128__exception_guard_exceptionsINS_29_AllocatorDestroyRangeReverseINS_9allocatorINS_6vectorINS3_IdNS2_IdEEEENS2_IS5_EEEEEEPS7_EEED2B7v160002Ev, symObjAddr: 0x83F4, symBinAddr: 0x10000C8F4, symSize: 0x48 }
  - { offsetInCU: 0x13232, offset: 0x13232, size: 0x8, addend: 0x0, symName: __ZNKSt3__129_AllocatorDestroyRangeReverseINS_9allocatorINS_6vectorINS2_IdNS1_IdEEEENS1_IS4_EEEEEEPS6_EclB7v160002Ev, symObjAddr: 0x843C, symBinAddr: 0x10000C93C, symSize: 0x68 }
  - { offsetInCU: 0x13255, offset: 0x13255, size: 0x8, addend: 0x0, symName: __ZNSt3__116reverse_iteratorIPNS_6vectorINS1_IdNS_9allocatorIdEEEENS2_IS4_EEEEEC1B7v160002ES7_, symObjAddr: 0x8514, symBinAddr: 0x10000CA14, symSize: 0x34 }
  - { offsetInCU: 0x1328C, offset: 0x1328C, size: 0x8, addend: 0x0, symName: __ZNSt3__116allocator_traitsINS_9allocatorINS_6vectorINS2_IdNS1_IdEEEENS1_IS4_EEEEEEE7destroyB7v160002IS6_vEEvRS7_PT_, symObjAddr: 0x8590, symBinAddr: 0x10000CA90, symSize: 0x2C }
  - { offsetInCU: 0x132C8, offset: 0x132C8, size: 0x8, addend: 0x0, symName: __ZNSt3__116reverse_iteratorIPNS_6vectorINS1_IdNS_9allocatorIdEEEENS2_IS4_EEEEEppB7v160002Ev, symObjAddr: 0x85E0, symBinAddr: 0x10000CAE0, symSize: 0x20 }
  - { offsetInCU: 0x132EC, offset: 0x132EC, size: 0x8, addend: 0x0, symName: __ZNKSt3__116reverse_iteratorIPNS_6vectorINS1_IdNS_9allocatorIdEEEENS2_IS4_EEEEE4baseB7v160002Ev, symObjAddr: 0x8600, symBinAddr: 0x10000CB00, symSize: 0x18 }
  - { offsetInCU: 0x13311, offset: 0x13311, size: 0x8, addend: 0x0, symName: __ZNSt3__19allocatorINS_6vectorINS1_IdNS0_IdEEEENS0_IS3_EEEEE7destroyB7v160002EPS5_, symObjAddr: 0x8618, symBinAddr: 0x10000CB18, symSize: 0x28 }
  - { offsetInCU: 0x13348, offset: 0x13348, size: 0x8, addend: 0x0, symName: __ZNSt3__119__to_address_helperINS_16reverse_iteratorIPNS_6vectorINS2_IdNS_9allocatorIdEEEENS3_IS5_EEEEEEvE6__callB7v160002ERKS9_, symObjAddr: 0x8640, symBinAddr: 0x10000CB40, symSize: 0x4C }
  - { offsetInCU: 0x1336B, offset: 0x1336B, size: 0x8, addend: 0x0, symName: __ZNKSt3__116reverse_iteratorIPNS_6vectorINS1_IdNS_9allocatorIdEEEENS2_IS4_EEEEEptB7v160002Ev, symObjAddr: 0x868C, symBinAddr: 0x10000CB8C, symSize: 0x24 }
  - { offsetInCU: 0x1338E, offset: 0x1338E, size: 0x8, addend: 0x0, symName: __ZNKSt3__116reverse_iteratorIPNS_6vectorINS1_IdNS_9allocatorIdEEEENS2_IS4_EEEEEdeB7v160002Ev, symObjAddr: 0x86B0, symBinAddr: 0x10000CBB0, symSize: 0x28 }
  - { offsetInCU: 0x133C1, offset: 0x133C1, size: 0x8, addend: 0x0, symName: __ZNSt3__116reverse_iteratorIPNS_6vectorINS1_IdNS_9allocatorIdEEEENS2_IS4_EEEEEC2B7v160002ES7_, symObjAddr: 0x86D8, symBinAddr: 0x10000CBD8, symSize: 0x28 }
  - { offsetInCU: 0x133F8, offset: 0x133F8, size: 0x8, addend: 0x0, symName: __ZNSt3__16vectorINS0_INS0_IdNS_9allocatorIdEEEENS1_IS3_EEEENS1_IS5_EEE21_ConstructTransactionD2B7v160002Ev, symObjAddr: 0x8700, symBinAddr: 0x10000CC00, symSize: 0x20 }
  - { offsetInCU: 0x13420, offset: 0x13420, size: 0x8, addend: 0x0, symName: __ZNSt3__128__exception_guard_exceptionsINS_6vectorINS1_INS1_IdNS_9allocatorIdEEEENS2_IS4_EEEENS2_IS6_EEE16__destroy_vectorEED2B7v160002Ev, symObjAddr: 0x8720, symBinAddr: 0x10000CC20, symSize: 0x48 }
  - { offsetInCU: 0x13449, offset: 0x13449, size: 0x8, addend: 0x0, symName: __ZNSt3__16vectorINS0_INS0_IdNS_9allocatorIdEEEENS1_IS3_EEEENS1_IS5_EEE16__destroy_vectorclB7v160002Ev, symObjAddr: 0x8768, symBinAddr: 0x10000CC68, symSize: 0x9C }
  - { offsetInCU: 0x1346D, offset: 0x1346D, size: 0x8, addend: 0x0, symName: __ZNKSt3__16vectorINS0_INS0_IdNS_9allocatorIdEEEENS1_IS3_EEEENS1_IS5_EEE17__annotate_deleteB7v160002Ev, symObjAddr: 0x8804, symBinAddr: 0x10000CD04, symSize: 0xD4 }
  - { offsetInCU: 0x13491, offset: 0x13491, size: 0x8, addend: 0x0, symName: __ZNSt3__16vectorINS0_INS0_IdNS_9allocatorIdEEEENS1_IS3_EEEENS1_IS5_EEE7__clearB7v160002Ev, symObjAddr: 0x88E8, symBinAddr: 0x10000CDE8, symSize: 0x28 }
  - { offsetInCU: 0x134B5, offset: 0x134B5, size: 0x8, addend: 0x0, symName: __ZNSt3__116allocator_traitsINS_9allocatorINS_6vectorINS2_IdNS1_IdEEEENS1_IS4_EEEEEEE10deallocateB7v160002ERS7_PS6_m, symObjAddr: 0x8910, symBinAddr: 0x10000CE10, symSize: 0x34 }
  - { offsetInCU: 0x134F7, offset: 0x134F7, size: 0x8, addend: 0x0, symName: __ZNSt3__16vectorINS0_INS0_IdNS_9allocatorIdEEEENS1_IS3_EEEENS1_IS5_EEE22__base_destruct_at_endB7v160002EPS5_, symObjAddr: 0x8944, symBinAddr: 0x10000CE44, symSize: 0xA0 }
  - { offsetInCU: 0x13539, offset: 0x13539, size: 0x8, addend: 0x0, symName: __ZNSt3__19allocatorINS_6vectorINS1_IdNS0_IdEEEENS0_IS3_EEEEE10deallocateB7v160002EPS5_m, symObjAddr: 0x89E4, symBinAddr: 0x10000CEE4, symSize: 0x74 }
  - { offsetInCU: 0x13578, offset: 0x13578, size: 0x8, addend: 0x0, symName: __ZNSt3__128__exception_guard_exceptionsINS_29_AllocatorDestroyRangeReverseINS_9allocatorINS_6vectorINS3_INS3_IdNS2_IdEEEENS2_IS5_EEEENS2_IS7_EEEEEEPS9_EEED2B7v160002Ev, symObjAddr: 0x8A58, symBinAddr: 0x10000CF58, symSize: 0x48 }
  - { offsetInCU: 0x135A1, offset: 0x135A1, size: 0x8, addend: 0x0, symName: __ZNKSt3__129_AllocatorDestroyRangeReverseINS_9allocatorINS_6vectorINS2_INS2_IdNS1_IdEEEENS1_IS4_EEEENS1_IS6_EEEEEEPS8_EclB7v160002Ev, symObjAddr: 0x8AA0, symBinAddr: 0x10000CFA0, symSize: 0x68 }
  - { offsetInCU: 0x135C4, offset: 0x135C4, size: 0x8, addend: 0x0, symName: __ZNSt3__116reverse_iteratorIPNS_6vectorINS1_INS1_IdNS_9allocatorIdEEEENS2_IS4_EEEENS2_IS6_EEEEEC1B7v160002ES9_, symObjAddr: 0x8B78, symBinAddr: 0x10000D078, symSize: 0x34 }
  - { offsetInCU: 0x135FB, offset: 0x135FB, size: 0x8, addend: 0x0, symName: __ZNSt3__116allocator_traitsINS_9allocatorINS_6vectorINS2_INS2_IdNS1_IdEEEENS1_IS4_EEEENS1_IS6_EEEEEEE7destroyB7v160002IS8_vEEvRS9_PT_, symObjAddr: 0x8BF4, symBinAddr: 0x10000D0F4, symSize: 0x2C }
  - { offsetInCU: 0x13637, offset: 0x13637, size: 0x8, addend: 0x0, symName: __ZNSt3__116reverse_iteratorIPNS_6vectorINS1_INS1_IdNS_9allocatorIdEEEENS2_IS4_EEEENS2_IS6_EEEEEppB7v160002Ev, symObjAddr: 0x8C44, symBinAddr: 0x10000D144, symSize: 0x20 }
  - { offsetInCU: 0x1365B, offset: 0x1365B, size: 0x8, addend: 0x0, symName: __ZNKSt3__116reverse_iteratorIPNS_6vectorINS1_INS1_IdNS_9allocatorIdEEEENS2_IS4_EEEENS2_IS6_EEEEE4baseB7v160002Ev, symObjAddr: 0x8C64, symBinAddr: 0x10000D164, symSize: 0x18 }
  - { offsetInCU: 0x13680, offset: 0x13680, size: 0x8, addend: 0x0, symName: __ZNSt3__19allocatorINS_6vectorINS1_INS1_IdNS0_IdEEEENS0_IS3_EEEENS0_IS5_EEEEE7destroyB7v160002EPS7_, symObjAddr: 0x8C7C, symBinAddr: 0x10000D17C, symSize: 0x28 }
  - { offsetInCU: 0x136B7, offset: 0x136B7, size: 0x8, addend: 0x0, symName: __ZNSt3__119__to_address_helperINS_16reverse_iteratorIPNS_6vectorINS2_INS2_IdNS_9allocatorIdEEEENS3_IS5_EEEENS3_IS7_EEEEEEvE6__callB7v160002ERKSB_, symObjAddr: 0x8CA4, symBinAddr: 0x10000D1A4, symSize: 0x4C }
  - { offsetInCU: 0x136DA, offset: 0x136DA, size: 0x8, addend: 0x0, symName: __ZNKSt3__116reverse_iteratorIPNS_6vectorINS1_INS1_IdNS_9allocatorIdEEEENS2_IS4_EEEENS2_IS6_EEEEEptB7v160002Ev, symObjAddr: 0x8CF0, symBinAddr: 0x10000D1F0, symSize: 0x24 }
  - { offsetInCU: 0x136FD, offset: 0x136FD, size: 0x8, addend: 0x0, symName: __ZNKSt3__116reverse_iteratorIPNS_6vectorINS1_INS1_IdNS_9allocatorIdEEEENS2_IS4_EEEENS2_IS6_EEEEEdeB7v160002Ev, symObjAddr: 0x8D14, symBinAddr: 0x10000D214, symSize: 0x28 }
  - { offsetInCU: 0x13730, offset: 0x13730, size: 0x8, addend: 0x0, symName: __ZNSt3__116reverse_iteratorIPNS_6vectorINS1_INS1_IdNS_9allocatorIdEEEENS2_IS4_EEEENS2_IS6_EEEEEC2B7v160002ES9_, symObjAddr: 0x8D3C, symBinAddr: 0x10000D23C, symSize: 0x28 }
  - { offsetInCU: 0x13767, offset: 0x13767, size: 0x8, addend: 0x0, symName: __ZNSt3__16vectorINS0_INS0_INS0_IdNS_9allocatorIdEEEENS1_IS3_EEEENS1_IS5_EEEENS1_IS7_EEE21_ConstructTransactionD2B7v160002Ev, symObjAddr: 0x8D64, symBinAddr: 0x10000D264, symSize: 0x20 }
  - { offsetInCU: 0x1378F, offset: 0x1378F, size: 0x8, addend: 0x0, symName: __ZNSt3__128__exception_guard_exceptionsINS_6vectorINS1_INS1_INS1_IdNS_9allocatorIdEEEENS2_IS4_EEEENS2_IS6_EEEENS2_IS8_EEE16__destroy_vectorEED2B7v160002Ev, symObjAddr: 0x8D84, symBinAddr: 0x10000D284, symSize: 0x48 }
  - { offsetInCU: 0x137B8, offset: 0x137B8, size: 0x8, addend: 0x0, symName: __ZNSt3__16vectorINS0_INS0_INS0_IdNS_9allocatorIdEEEENS1_IS3_EEEENS1_IS5_EEEENS1_IS7_EEE16__destroy_vectorclB7v160002Ev, symObjAddr: 0x8DCC, symBinAddr: 0x10000D2CC, symSize: 0x9C }
  - { offsetInCU: 0x137DC, offset: 0x137DC, size: 0x8, addend: 0x0, symName: __ZNKSt3__16vectorINS0_INS0_INS0_IdNS_9allocatorIdEEEENS1_IS3_EEEENS1_IS5_EEEENS1_IS7_EEE17__annotate_deleteB7v160002Ev, symObjAddr: 0x8E68, symBinAddr: 0x10000D368, symSize: 0xD4 }
  - { offsetInCU: 0x13800, offset: 0x13800, size: 0x8, addend: 0x0, symName: __ZNSt3__16vectorINS0_INS0_INS0_IdNS_9allocatorIdEEEENS1_IS3_EEEENS1_IS5_EEEENS1_IS7_EEE7__clearB7v160002Ev, symObjAddr: 0x8F4C, symBinAddr: 0x10000D44C, symSize: 0x28 }
  - { offsetInCU: 0x13824, offset: 0x13824, size: 0x8, addend: 0x0, symName: __ZNSt3__116allocator_traitsINS_9allocatorINS_6vectorINS2_INS2_IdNS1_IdEEEENS1_IS4_EEEENS1_IS6_EEEEEEE10deallocateB7v160002ERS9_PS8_m, symObjAddr: 0x8F74, symBinAddr: 0x10000D474, symSize: 0x34 }
  - { offsetInCU: 0x13866, offset: 0x13866, size: 0x8, addend: 0x0, symName: __ZNSt3__16vectorINS0_INS0_INS0_IdNS_9allocatorIdEEEENS1_IS3_EEEENS1_IS5_EEEENS1_IS7_EEE22__base_destruct_at_endB7v160002EPS7_, symObjAddr: 0x8FA8, symBinAddr: 0x10000D4A8, symSize: 0xA0 }
  - { offsetInCU: 0x138A8, offset: 0x138A8, size: 0x8, addend: 0x0, symName: __ZNSt3__19allocatorINS_6vectorINS1_INS1_IdNS0_IdEEEENS0_IS3_EEEENS0_IS5_EEEEE10deallocateB7v160002EPS7_m, symObjAddr: 0x9048, symBinAddr: 0x10000D548, symSize: 0x74 }
  - { offsetInCU: 0x138E7, offset: 0x138E7, size: 0x8, addend: 0x0, symName: __ZN12MaxPoolLayerC2Eiii, symObjAddr: 0x90BC, symBinAddr: 0x10000D5BC, symSize: 0x68 }
  - { offsetInCU: 0x1393A, offset: 0x1393A, size: 0x8, addend: 0x0, symName: __ZN12MaxPoolLayer7forwardERNSt3__16vectorINS1_INS1_IdNS0_9allocatorIdEEEENS2_IS4_EEEENS2_IS6_EEEE, symObjAddr: 0x9124, symBinAddr: 0x10000D624, symSize: 0x40 }
  - { offsetInCU: 0x1396B, offset: 0x1396B, size: 0x8, addend: 0x0, symName: __ZNSt3__16vectorIP5LayerNS_9allocatorIS2_EEED2B7v160002Ev, symObjAddr: 0x9164, symBinAddr: 0x10000D664, symSize: 0x3C }
  - { offsetInCU: 0x13993, offset: 0x13993, size: 0x8, addend: 0x0, symName: __ZNSt3__16vectorIP5LayerNS_9allocatorIS2_EEE16__destroy_vectorC1ERS5_, symObjAddr: 0x91A0, symBinAddr: 0x10000D6A0, symSize: 0x34 }
  - { offsetInCU: 0x139CB, offset: 0x139CB, size: 0x8, addend: 0x0, symName: __ZNSt3__16vectorIP5LayerNS_9allocatorIS2_EEE16__destroy_vectorclB7v160002Ev, symObjAddr: 0x91D4, symBinAddr: 0x10000D6D4, symSize: 0x9C }
  - { offsetInCU: 0x139EF, offset: 0x139EF, size: 0x8, addend: 0x0, symName: __ZNSt3__16vectorIP5LayerNS_9allocatorIS2_EEE16__destroy_vectorC2ERS5_, symObjAddr: 0x9270, symBinAddr: 0x10000D770, symSize: 0x20 }
  - { offsetInCU: 0x13A27, offset: 0x13A27, size: 0x8, addend: 0x0, symName: __ZNSt3__16vectorIP5LayerNS_9allocatorIS2_EEE7__clearB7v160002Ev, symObjAddr: 0x92A0, symBinAddr: 0x10000D7A0, symSize: 0x28 }
  - { offsetInCU: 0x13A4B, offset: 0x13A4B, size: 0x8, addend: 0x0, symName: __ZNSt3__16vectorIP5LayerNS_9allocatorIS2_EEE22__base_destruct_at_endB7v160002EPS2_, symObjAddr: 0x92C8, symBinAddr: 0x10000D7C8, symSize: 0xA0 }
  - { offsetInCU: 0x13A8C, offset: 0x13A8C, size: 0x8, addend: 0x0, symName: __ZNSt3__16vectorIP5LayerNS_9allocatorIS2_EEE5beginB7v160002Ev, symObjAddr: 0x9368, symBinAddr: 0x10000D868, symSize: 0x30 }
  - { offsetInCU: 0x13AB2, offset: 0x13AB2, size: 0x8, addend: 0x0, symName: __ZNSt3__16vectorIP5LayerNS_9allocatorIS2_EEE3endB7v160002Ev, symObjAddr: 0x93CC, symBinAddr: 0x10000D8CC, symSize: 0x30 }
  - { offsetInCU: 0x13AD8, offset: 0x13AD8, size: 0x8, addend: 0x0, symName: __ZNKSt3__111__wrap_iterIPP5LayerEdeB7v160002Ev, symObjAddr: 0x93FC, symBinAddr: 0x10000D8FC, symSize: 0x18 }
  - { offsetInCU: 0x13AFC, offset: 0x13AFC, size: 0x8, addend: 0x0, symName: __ZNSt3__111__wrap_iterIPP5LayerEppB7v160002Ev, symObjAddr: 0x9414, symBinAddr: 0x10000D914, symSize: 0x20 }
  - { offsetInCU: 0x13B21, offset: 0x13B21, size: 0x8, addend: 0x0, symName: __ZNSt3__16vectorIP5LayerNS_9allocatorIS2_EEE11__make_iterB7v160002EPS2_, symObjAddr: 0x9434, symBinAddr: 0x10000D934, symSize: 0x34 }
  - { offsetInCU: 0x13B53, offset: 0x13B53, size: 0x8, addend: 0x0, symName: __ZNSt3__111__wrap_iterIPP5LayerEC1B7v160002EPKvS3_, symObjAddr: 0x9468, symBinAddr: 0x10000D968, symSize: 0x3C }
  - { offsetInCU: 0x13B98, offset: 0x13B98, size: 0x8, addend: 0x0, symName: __ZNSt3__111__wrap_iterIPP5LayerEC2B7v160002EPKvS3_, symObjAddr: 0x94A4, symBinAddr: 0x10000D9A4, symSize: 0x24 }
  - { offsetInCU: 0x13BDC, offset: 0x13BDC, size: 0x8, addend: 0x0, symName: __ZNKSt3__111__wrap_iterIPP5LayerE4baseB7v160002Ev, symObjAddr: 0x9510, symBinAddr: 0x10000DA10, symSize: 0x18 }
  - { offsetInCU: 0x13C01, offset: 0x13C01, size: 0x8, addend: 0x0, symName: __ZN5VGG19D2Ev, symObjAddr: 0x9528, symBinAddr: 0x10000DA28, symSize: 0x2C }
  - { offsetInCU: 0x13C2A, offset: 0x13C2A, size: 0x8, addend: 0x0, symName: __ZNSt3__16vectorIdNS_9allocatorIdEEEC2EmRKd, symObjAddr: 0x9554, symBinAddr: 0x10000DA54, symSize: 0xEC }
  - { offsetInCU: 0x13C87, offset: 0x13C87, size: 0x8, addend: 0x0, symName: __ZNSt3__117__compressed_pairIPdNS_9allocatorIdEEEC1B7v160002IDnNS_18__default_init_tagEEEOT_OT0_, symObjAddr: 0x9640, symBinAddr: 0x10000DB40, symSize: 0x3C }
  - { offsetInCU: 0x13CDD, offset: 0x13CDD, size: 0x8, addend: 0x0, symName: __ZNSt3__16vectorIdNS_9allocatorIdEEE18__construct_at_endEmRKd, symObjAddr: 0x967C, symBinAddr: 0x10000DB7C, symSize: 0xD8 }
  - { offsetInCU: 0x13D5D, offset: 0x13D5D, size: 0x8, addend: 0x0, symName: __ZNSt3__117__compressed_pairIPdNS_9allocatorIdEEEC2B7v160002IDnNS_18__default_init_tagEEEOT_OT0_, symObjAddr: 0x9754, symBinAddr: 0x10000DC54, symSize: 0x40 }
  - { offsetInCU: 0x13DB3, offset: 0x13DB3, size: 0x8, addend: 0x0, symName: __ZNSt3__122__compressed_pair_elemINS_9allocatorIdEELi1ELb1EEC2B7v160002ENS_18__default_init_tagE, symObjAddr: 0x9794, symBinAddr: 0x10000DC94, symSize: 0x2C }
  - { offsetInCU: 0x13DE6, offset: 0x13DE6, size: 0x8, addend: 0x0, symName: __ZNSt3__19allocatorIdEC2B7v160002Ev, symObjAddr: 0x97C0, symBinAddr: 0x10000DCC0, symSize: 0x2C }
  - { offsetInCU: 0x13E0F, offset: 0x13E0F, size: 0x8, addend: 0x0, symName: __ZNSt3__116__non_trivial_ifILb1ENS_9allocatorIdEEEC2B7v160002Ev, symObjAddr: 0x97EC, symBinAddr: 0x10000DCEC, symSize: 0x14 }
  - { offsetInCU: 0x13E38, offset: 0x13E38, size: 0x8, addend: 0x0, symName: __ZNSt3__116allocator_traitsINS_9allocatorIdEEE9constructB7v160002IdJRKdEvEEvRS2_PT_DpOT0_, symObjAddr: 0x9800, symBinAddr: 0x10000DD00, symSize: 0x34 }
  - { offsetInCU: 0x13E8E, offset: 0x13E8E, size: 0x8, addend: 0x0, symName: __ZNSt3__19allocatorIdE9constructB7v160002IdJRKdEEEvPT_DpOT0_, symObjAddr: 0x9834, symBinAddr: 0x10000DD34, symSize: 0x28 }
  - { offsetInCU: 0x13EE2, offset: 0x13EE2, size: 0x8, addend: 0x0, symName: __ZNSt3__16vectorIdNS_9allocatorIdEEED2B7v160002Ev, symObjAddr: 0x985C, symBinAddr: 0x10000DD5C, symSize: 0x3C }
  - { offsetInCU: 0x13F0A, offset: 0x13F0A, size: 0x8, addend: 0x0, symName: __ZNSt3__16vectorINS0_IdNS_9allocatorIdEEEENS1_IS3_EEEC2EmRKS3_, symObjAddr: 0x9898, symBinAddr: 0x10000DD98, symSize: 0xEC }
  - { offsetInCU: 0x13F67, offset: 0x13F67, size: 0x8, addend: 0x0, symName: __ZNSt3__117__compressed_pairIPNS_6vectorIdNS_9allocatorIdEEEENS2_IS4_EEEC1B7v160002IDnNS_18__default_init_tagEEEOT_OT0_, symObjAddr: 0x9984, symBinAddr: 0x10000DE84, symSize: 0x3C }
  - { offsetInCU: 0x13FBD, offset: 0x13FBD, size: 0x8, addend: 0x0, symName: __ZNSt3__16vectorINS0_IdNS_9allocatorIdEEEENS1_IS3_EEE18__construct_at_endEmRKS3_, symObjAddr: 0x99C0, symBinAddr: 0x10000DEC0, symSize: 0xD8 }
  - { offsetInCU: 0x1403D, offset: 0x1403D, size: 0x8, addend: 0x0, symName: __ZNSt3__117__compressed_pairIPNS_6vectorIdNS_9allocatorIdEEEENS2_IS4_EEEC2B7v160002IDnNS_18__default_init_tagEEEOT_OT0_, symObjAddr: 0x9A98, symBinAddr: 0x10000DF98, symSize: 0x40 }
  - { offsetInCU: 0x14093, offset: 0x14093, size: 0x8, addend: 0x0, symName: __ZNSt3__122__compressed_pair_elemINS_9allocatorINS_6vectorIdNS1_IdEEEEEELi1ELb1EEC2B7v160002ENS_18__default_init_tagE, symObjAddr: 0x9AD8, symBinAddr: 0x10000DFD8, symSize: 0x2C }
  - { offsetInCU: 0x140C6, offset: 0x140C6, size: 0x8, addend: 0x0, symName: __ZNSt3__19allocatorINS_6vectorIdNS0_IdEEEEEC2B7v160002Ev, symObjAddr: 0x9B04, symBinAddr: 0x10000E004, symSize: 0x2C }
  - { offsetInCU: 0x140EF, offset: 0x140EF, size: 0x8, addend: 0x0, symName: __ZNSt3__116__non_trivial_ifILb1ENS_9allocatorINS_6vectorIdNS1_IdEEEEEEEC2B7v160002Ev, symObjAddr: 0x9B30, symBinAddr: 0x10000E030, symSize: 0x14 }
  - { offsetInCU: 0x14118, offset: 0x14118, size: 0x8, addend: 0x0, symName: __ZNSt3__116allocator_traitsINS_9allocatorINS_6vectorIdNS1_IdEEEEEEE9constructB7v160002IS4_JRKS4_EvEEvRS5_PT_DpOT0_, symObjAddr: 0x9B44, symBinAddr: 0x10000E044, symSize: 0x34 }
  - { offsetInCU: 0x1416F, offset: 0x1416F, size: 0x8, addend: 0x0, symName: __ZNSt3__19allocatorINS_6vectorIdNS0_IdEEEEE9constructB7v160002IS3_JRKS3_EEEvPT_DpOT0_, symObjAddr: 0x9B78, symBinAddr: 0x10000E078, symSize: 0x30 }
  - { offsetInCU: 0x141C2, offset: 0x141C2, size: 0x8, addend: 0x0, symName: __ZNSt3__16vectorINS0_IdNS_9allocatorIdEEEENS1_IS3_EEED2B7v160002Ev, symObjAddr: 0x9BA8, symBinAddr: 0x10000E0A8, symSize: 0x3C }
  - { offsetInCU: 0x141EA, offset: 0x141EA, size: 0x8, addend: 0x0, symName: __ZNSt3__16vectorINS0_INS0_IdNS_9allocatorIdEEEENS1_IS3_EEEENS1_IS5_EEEC2EmRKS5_, symObjAddr: 0x9BE4, symBinAddr: 0x10000E0E4, symSize: 0xEC }
  - { offsetInCU: 0x14247, offset: 0x14247, size: 0x8, addend: 0x0, symName: __ZNSt3__117__compressed_pairIPNS_6vectorINS1_IdNS_9allocatorIdEEEENS2_IS4_EEEENS2_IS6_EEEC1B7v160002IDnNS_18__default_init_tagEEEOT_OT0_, symObjAddr: 0x9CD0, symBinAddr: 0x10000E1D0, symSize: 0x3C }
  - { offsetInCU: 0x1429D, offset: 0x1429D, size: 0x8, addend: 0x0, symName: __ZNSt3__16vectorINS0_INS0_IdNS_9allocatorIdEEEENS1_IS3_EEEENS1_IS5_EEE18__construct_at_endEmRKS5_, symObjAddr: 0x9D0C, symBinAddr: 0x10000E20C, symSize: 0xD8 }
  - { offsetInCU: 0x1431D, offset: 0x1431D, size: 0x8, addend: 0x0, symName: __ZNSt3__117__compressed_pairIPNS_6vectorINS1_IdNS_9allocatorIdEEEENS2_IS4_EEEENS2_IS6_EEEC2B7v160002IDnNS_18__default_init_tagEEEOT_OT0_, symObjAddr: 0x9DE4, symBinAddr: 0x10000E2E4, symSize: 0x40 }
  - { offsetInCU: 0x14373, offset: 0x14373, size: 0x8, addend: 0x0, symName: __ZNSt3__122__compressed_pair_elemINS_9allocatorINS_6vectorINS2_IdNS1_IdEEEENS1_IS4_EEEEEELi1ELb1EEC2B7v160002ENS_18__default_init_tagE, symObjAddr: 0x9E24, symBinAddr: 0x10000E324, symSize: 0x2C }
  - { offsetInCU: 0x143A6, offset: 0x143A6, size: 0x8, addend: 0x0, symName: __ZNSt3__19allocatorINS_6vectorINS1_IdNS0_IdEEEENS0_IS3_EEEEEC2B7v160002Ev, symObjAddr: 0x9E50, symBinAddr: 0x10000E350, symSize: 0x2C }
  - { offsetInCU: 0x143CF, offset: 0x143CF, size: 0x8, addend: 0x0, symName: __ZNSt3__116__non_trivial_ifILb1ENS_9allocatorINS_6vectorINS2_IdNS1_IdEEEENS1_IS4_EEEEEEEC2B7v160002Ev, symObjAddr: 0x9E7C, symBinAddr: 0x10000E37C, symSize: 0x14 }
  - { offsetInCU: 0x143F8, offset: 0x143F8, size: 0x8, addend: 0x0, symName: __ZNSt3__116allocator_traitsINS_9allocatorINS_6vectorINS2_IdNS1_IdEEEENS1_IS4_EEEEEEE9constructB7v160002IS6_JRKS6_EvEEvRS7_PT_DpOT0_, symObjAddr: 0x9E90, symBinAddr: 0x10000E390, symSize: 0x34 }
  - { offsetInCU: 0x1444F, offset: 0x1444F, size: 0x8, addend: 0x0, symName: __ZNSt3__19allocatorINS_6vectorINS1_IdNS0_IdEEEENS0_IS3_EEEEE9constructB7v160002IS5_JRKS5_EEEvPT_DpOT0_, symObjAddr: 0x9EC4, symBinAddr: 0x10000E3C4, symSize: 0x30 }
  - { offsetInCU: 0x144A2, offset: 0x144A2, size: 0x8, addend: 0x0, symName: __ZNSt3__16vectorINS0_INS0_IdNS_9allocatorIdEEEENS1_IS3_EEEENS1_IS5_EEED2B7v160002Ev, symObjAddr: 0x9EF4, symBinAddr: 0x10000E3F4, symSize: 0x3C }
  - { offsetInCU: 0x144CA, offset: 0x144CA, size: 0x8, addend: 0x0, symName: __ZNSt3__16vectorINS0_INS0_IdNS_9allocatorIdEEEENS1_IS3_EEEENS1_IS5_EEE13__move_assignERS7_NS_17integral_constantIbLb1EEE, symObjAddr: 0x9F30, symBinAddr: 0x10000E430, symSize: 0xA4 }
  - { offsetInCU: 0x1450A, offset: 0x1450A, size: 0x8, addend: 0x0, symName: __ZNSt3__16vectorINS0_INS0_IdNS_9allocatorIdEEEENS1_IS3_EEEENS1_IS5_EEE13__vdeallocateEv, symObjAddr: 0x9FD4, symBinAddr: 0x10000E4D4, symSize: 0x8C }
  - { offsetInCU: 0x14531, offset: 0x14531, size: 0x8, addend: 0x0, symName: __ZNSt3__16vectorINS0_INS0_IdNS_9allocatorIdEEEENS1_IS3_EEEENS1_IS5_EEE19__move_assign_allocB7v160002ERS7_, symObjAddr: 0xA060, symBinAddr: 0x10000E560, symSize: 0x2C }
  - { offsetInCU: 0x14564, offset: 0x14564, size: 0x8, addend: 0x0, symName: __ZNSt3__16vectorINS0_INS0_IdNS_9allocatorIdEEEENS1_IS3_EEEENS1_IS5_EEE5clearB7v160002Ev, symObjAddr: 0xA0A0, symBinAddr: 0x10000E5A0, symSize: 0x68 }
  - { offsetInCU: 0x14597, offset: 0x14597, size: 0x8, addend: 0x0, symName: __ZNKSt3__16vectorINS0_INS0_IdNS_9allocatorIdEEEENS1_IS3_EEEENS1_IS5_EEE17__annotate_shrinkB7v160002Em, symObjAddr: 0xA108, symBinAddr: 0x10000E608, symSize: 0xD0 }
  - { offsetInCU: 0x145CA, offset: 0x145CA, size: 0x8, addend: 0x0, symName: __ZNSt3__16vectorINS0_INS0_IdNS_9allocatorIdEEEENS1_IS3_EEEENS1_IS5_EEE19__move_assign_allocB7v160002ERS7_NS_17integral_constantIbLb1EEE, symObjAddr: 0xA1E8, symBinAddr: 0x10000E6E8, symSize: 0x38 }
  - { offsetInCU: 0x14608, offset: 0x14608, size: 0x8, addend: 0x0, symName: __ZNSt3__123__libcpp_numeric_limitsIdLb1EE3maxB7v160002Ev, symObjAddr: 0xA220, symBinAddr: 0x10000E720, symSize: 0xC }
  - { offsetInCU: 0x14625, offset: 0x14625, size: 0x8, addend: 0x0, symName: __ZNKSt3__16__lessIddEclB7v160002ERKdS3_, symObjAddr: 0xA280, symBinAddr: 0x10000E780, symSize: 0x34 }
  - { offsetInCU: 0x14665, offset: 0x14665, size: 0x8, addend: 0x0, symName: __ZNSt3__16vectorIdNS_9allocatorIdEEEC2Em, symObjAddr: 0xA2B4, symBinAddr: 0x10000E7B4, symSize: 0xE4 }
  - { offsetInCU: 0x146B3, offset: 0x146B3, size: 0x8, addend: 0x0, symName: __ZNSt3__16vectorIdNS_9allocatorIdEEE18__construct_at_endEm, symObjAddr: 0xA398, symBinAddr: 0x10000E898, symSize: 0xD0 }
  - { offsetInCU: 0x14725, offset: 0x14725, size: 0x8, addend: 0x0, symName: __ZNSt3__116allocator_traitsINS_9allocatorIdEEE9constructB7v160002IdJEvEEvRS2_PT_DpOT0_, symObjAddr: 0xA468, symBinAddr: 0x10000E968, symSize: 0x2C }
  - { offsetInCU: 0x14766, offset: 0x14766, size: 0x8, addend: 0x0, symName: __ZNSt3__19allocatorIdE9constructB7v160002IdJEEEvPT_DpOT0_, symObjAddr: 0xA494, symBinAddr: 0x10000E994, symSize: 0x20 }
  - { offsetInCU: 0x147A6, offset: 0x147A6, size: 0x8, addend: 0x0, symName: __ZNSt3__16vectorINS0_INS0_INS0_IdNS_9allocatorIdEEEENS1_IS3_EEEENS1_IS5_EEEENS1_IS7_EEEC2EmRKS7_, symObjAddr: 0xA4B4, symBinAddr: 0x10000E9B4, symSize: 0xEC }
  - { offsetInCU: 0x14803, offset: 0x14803, size: 0x8, addend: 0x0, symName: __ZNSt3__117__compressed_pairIPNS_6vectorINS1_INS1_IdNS_9allocatorIdEEEENS2_IS4_EEEENS2_IS6_EEEENS2_IS8_EEEC1B7v160002IDnNS_18__default_init_tagEEEOT_OT0_, symObjAddr: 0xA5A0, symBinAddr: 0x10000EAA0, symSize: 0x3C }
  - { offsetInCU: 0x14859, offset: 0x14859, size: 0x8, addend: 0x0, symName: __ZNSt3__16vectorINS0_INS0_INS0_IdNS_9allocatorIdEEEENS1_IS3_EEEENS1_IS5_EEEENS1_IS7_EEE18__construct_at_endEmRKS7_, symObjAddr: 0xA5DC, symBinAddr: 0x10000EADC, symSize: 0xD8 }
  - { offsetInCU: 0x148D9, offset: 0x148D9, size: 0x8, addend: 0x0, symName: __ZNSt3__117__compressed_pairIPNS_6vectorINS1_INS1_IdNS_9allocatorIdEEEENS2_IS4_EEEENS2_IS6_EEEENS2_IS8_EEEC2B7v160002IDnNS_18__default_init_tagEEEOT_OT0_, symObjAddr: 0xA6B4, symBinAddr: 0x10000EBB4, symSize: 0x40 }
  - { offsetInCU: 0x1492F, offset: 0x1492F, size: 0x8, addend: 0x0, symName: __ZNSt3__122__compressed_pair_elemINS_9allocatorINS_6vectorINS2_INS2_IdNS1_IdEEEENS1_IS4_EEEENS1_IS6_EEEEEELi1ELb1EEC2B7v160002ENS_18__default_init_tagE, symObjAddr: 0xA6F4, symBinAddr: 0x10000EBF4, symSize: 0x2C }
  - { offsetInCU: 0x14962, offset: 0x14962, size: 0x8, addend: 0x0, symName: __ZNSt3__19allocatorINS_6vectorINS1_INS1_IdNS0_IdEEEENS0_IS3_EEEENS0_IS5_EEEEEC2B7v160002Ev, symObjAddr: 0xA720, symBinAddr: 0x10000EC20, symSize: 0x2C }
  - { offsetInCU: 0x1498B, offset: 0x1498B, size: 0x8, addend: 0x0, symName: __ZNSt3__116__non_trivial_ifILb1ENS_9allocatorINS_6vectorINS2_INS2_IdNS1_IdEEEENS1_IS4_EEEENS1_IS6_EEEEEEEC2B7v160002Ev, symObjAddr: 0xA74C, symBinAddr: 0x10000EC4C, symSize: 0x14 }
  - { offsetInCU: 0x149B4, offset: 0x149B4, size: 0x8, addend: 0x0, symName: __ZNSt3__116allocator_traitsINS_9allocatorINS_6vectorINS2_INS2_IdNS1_IdEEEENS1_IS4_EEEENS1_IS6_EEEEEEE9constructB7v160002IS8_JRKS8_EvEEvRS9_PT_DpOT0_, symObjAddr: 0xA760, symBinAddr: 0x10000EC60, symSize: 0x34 }
  - { offsetInCU: 0x14A0B, offset: 0x14A0B, size: 0x8, addend: 0x0, symName: __ZNSt3__19allocatorINS_6vectorINS1_INS1_IdNS0_IdEEEENS0_IS3_EEEENS0_IS5_EEEEE9constructB7v160002IS7_JRKS7_EEEvPT_DpOT0_, symObjAddr: 0xA794, symBinAddr: 0x10000EC94, symSize: 0x30 }
  - { offsetInCU: 0x14A5E, offset: 0x14A5E, size: 0x8, addend: 0x0, symName: __ZNSt3__16vectorINS0_INS0_INS0_IdNS_9allocatorIdEEEENS1_IS3_EEEENS1_IS5_EEEENS1_IS7_EEED2B7v160002Ev, symObjAddr: 0xA7C4, symBinAddr: 0x10000ECC4, symSize: 0x3C }
...
